
Air Conditioner.elf:     file format elf32-avr

Sections:
Idx Name          Size      VMA       LMA       File off  Algn
  0 .text         00001ba4  00000000  00000000  00000094  2**1
                  CONTENTS, ALLOC, LOAD, READONLY, CODE
  1 .data         00000048  00800060  00001ba4  00001c38  2**0
                  CONTENTS, ALLOC, LOAD, DATA
  2 .bss          0000001f  008000a8  008000a8  00001c80  2**0
                  ALLOC
  3 .comment      00000030  00000000  00000000  00001c80  2**0
                  CONTENTS, READONLY
  4 .note.gnu.avr.deviceinfo 0000003c  00000000  00000000  00001cb0  2**2
                  CONTENTS, READONLY
  5 .debug_aranges 00000298  00000000  00000000  00001cec  2**0
                  CONTENTS, READONLY, DEBUGGING
  6 .debug_info   00002ebf  00000000  00000000  00001f84  2**0
                  CONTENTS, READONLY, DEBUGGING
  7 .debug_abbrev 00000fb2  00000000  00000000  00004e43  2**0
                  CONTENTS, READONLY, DEBUGGING
  8 .debug_line   00001a24  00000000  00000000  00005df5  2**0
                  CONTENTS, READONLY, DEBUGGING
  9 .debug_frame  000006b0  00000000  00000000  0000781c  2**2
                  CONTENTS, READONLY, DEBUGGING
 10 .debug_str    00000d59  00000000  00000000  00007ecc  2**0
                  CONTENTS, READONLY, DEBUGGING
 11 .debug_loc    00001e9e  00000000  00000000  00008c25  2**0
                  CONTENTS, READONLY, DEBUGGING
 12 .debug_ranges 000002a0  00000000  00000000  0000aac3  2**0
                  CONTENTS, READONLY, DEBUGGING

Disassembly of section .text:

00000000 <__vectors>:
       0:	0c 94 2a 00 	jmp	0x54	; 0x54 <__ctors_end>
       4:	0c 94 47 00 	jmp	0x8e	; 0x8e <__bad_interrupt>
       8:	0c 94 47 00 	jmp	0x8e	; 0x8e <__bad_interrupt>
       c:	0c 94 47 00 	jmp	0x8e	; 0x8e <__bad_interrupt>
      10:	0c 94 21 0b 	jmp	0x1642	; 0x1642 <__vector_4>
      14:	0c 94 47 00 	jmp	0x8e	; 0x8e <__bad_interrupt>
      18:	0c 94 47 00 	jmp	0x8e	; 0x8e <__bad_interrupt>
      1c:	0c 94 fa 0a 	jmp	0x15f4	; 0x15f4 <__vector_7>
      20:	0c 94 47 00 	jmp	0x8e	; 0x8e <__bad_interrupt>
      24:	0c 94 47 00 	jmp	0x8e	; 0x8e <__bad_interrupt>
      28:	0c 94 d3 0a 	jmp	0x15a6	; 0x15a6 <__vector_10>
      2c:	0c 94 47 00 	jmp	0x8e	; 0x8e <__bad_interrupt>
      30:	0c 94 47 00 	jmp	0x8e	; 0x8e <__bad_interrupt>
      34:	0c 94 47 00 	jmp	0x8e	; 0x8e <__bad_interrupt>
      38:	0c 94 47 00 	jmp	0x8e	; 0x8e <__bad_interrupt>
      3c:	0c 94 47 00 	jmp	0x8e	; 0x8e <__bad_interrupt>
      40:	0c 94 47 00 	jmp	0x8e	; 0x8e <__bad_interrupt>
      44:	0c 94 47 00 	jmp	0x8e	; 0x8e <__bad_interrupt>
      48:	0c 94 47 00 	jmp	0x8e	; 0x8e <__bad_interrupt>
      4c:	0c 94 47 00 	jmp	0x8e	; 0x8e <__bad_interrupt>
      50:	0c 94 47 00 	jmp	0x8e	; 0x8e <__bad_interrupt>

00000054 <__ctors_end>:
      54:	11 24       	eor	r1, r1
      56:	1f be       	out	0x3f, r1	; 63
      58:	cf e5       	ldi	r28, 0x5F	; 95
      5a:	d8 e0       	ldi	r29, 0x08	; 8
      5c:	de bf       	out	0x3e, r29	; 62
      5e:	cd bf       	out	0x3d, r28	; 61

00000060 <__do_copy_data>:
      60:	10 e0       	ldi	r17, 0x00	; 0
      62:	a0 e6       	ldi	r26, 0x60	; 96
      64:	b0 e0       	ldi	r27, 0x00	; 0
      66:	e4 ea       	ldi	r30, 0xA4	; 164
      68:	fb e1       	ldi	r31, 0x1B	; 27
      6a:	02 c0       	rjmp	.+4      	; 0x70 <__do_copy_data+0x10>
      6c:	05 90       	lpm	r0, Z+
      6e:	0d 92       	st	X+, r0
      70:	a8 3a       	cpi	r26, 0xA8	; 168
      72:	b1 07       	cpc	r27, r17
      74:	d9 f7       	brne	.-10     	; 0x6c <__do_copy_data+0xc>

00000076 <__do_clear_bss>:
      76:	20 e0       	ldi	r18, 0x00	; 0
      78:	a8 ea       	ldi	r26, 0xA8	; 168
      7a:	b0 e0       	ldi	r27, 0x00	; 0
      7c:	01 c0       	rjmp	.+2      	; 0x80 <.do_clear_bss_start>

0000007e <.do_clear_bss_loop>:
      7e:	1d 92       	st	X+, r1

00000080 <.do_clear_bss_start>:
      80:	a7 3c       	cpi	r26, 0xC7	; 199
      82:	b2 07       	cpc	r27, r18
      84:	e1 f7       	brne	.-8      	; 0x7e <.do_clear_bss_loop>
      86:	0e 94 b4 05 	call	0xb68	; 0xb68 <main>
      8a:	0c 94 d0 0d 	jmp	0x1ba0	; 0x1ba0 <_exit>

0000008e <__bad_interrupt>:
      8e:	0c 94 00 00 	jmp	0	; 0x0 <__vectors>

00000092 <App_Init>:
	char Str_number[3];
	convert_2DigitInt_to_str(gDesired_temp,Str_number);
	LCD_clearScreen();
	LCD_displayStringRowColumn(0,0,"Desired Temp");
	LCD_displayStringRowColumn(DESIRED_TEMP_ROW_COLUMN,Str_number);
}
      92:	0e 94 18 04 	call	0x830	; 0x830 <LCD_init>
      96:	0e 94 e6 01 	call	0x3cc	; 0x3cc <Keypad_init>
      9a:	80 e0       	ldi	r24, 0x00	; 0
      9c:	0e 94 35 05 	call	0xa6a	; 0xa6a <Lm35_init>
      a0:	40 91 60 00 	lds	r20, 0x0060	; 0x800060 <__DATA_REGION_ORIGIN__>
      a4:	50 91 61 00 	lds	r21, 0x0061	; 0x800061 <__DATA_REGION_ORIGIN__+0x1>
      a8:	60 91 62 00 	lds	r22, 0x0062	; 0x800062 <__DATA_REGION_ORIGIN__+0x2>
      ac:	70 91 63 00 	lds	r23, 0x0063	; 0x800063 <__DATA_REGION_ORIGIN__+0x3>
      b0:	80 91 64 00 	lds	r24, 0x0064	; 0x800064 <__DATA_REGION_ORIGIN__+0x4>
      b4:	0e 94 59 05 	call	0xab2	; 0xab2 <Motor_init>
      b8:	10 92 bf 00 	sts	0x00BF, r1	; 0x8000bf <gLcd_mode>
      bc:	89 e1       	ldi	r24, 0x19	; 25
      be:	80 93 bc 00 	sts	0x00BC, r24	; 0x8000bc <gDesired_temp>
      c2:	10 92 be 00 	sts	0x00BE, r1	; 0x8000be <gTimeOut>
      c6:	10 92 c0 00 	sts	0x00C0, r1	; 0x8000c0 <digit_count>
      ca:	10 92 bd 00 	sts	0x00BD, r1	; 0x8000bd <num_int>
      ce:	10 92 bb 00 	sts	0x00BB, r1	; 0x8000bb <keypad_reading>
      d2:	08 95       	ret

000000d4 <convert_2DigitInt_to_str>:
      d4:	fb 01       	movw	r30, r22
      d6:	8a 30       	cpi	r24, 0x0A	; 10
      d8:	20 f4       	brcc	.+8      	; 0xe2 <convert_2DigitInt_to_str+0xe>
      da:	80 5d       	subi	r24, 0xD0	; 208
      dc:	80 83       	st	Z, r24
      de:	11 82       	std	Z+1, r1	; 0x01
      e0:	08 95       	ret
      e2:	9d ec       	ldi	r25, 0xCD	; 205
      e4:	89 9f       	mul	r24, r25
      e6:	91 2d       	mov	r25, r1
      e8:	11 24       	eor	r1, r1
      ea:	96 95       	lsr	r25
      ec:	96 95       	lsr	r25
      ee:	96 95       	lsr	r25
      f0:	20 e3       	ldi	r18, 0x30	; 48
      f2:	29 0f       	add	r18, r25
      f4:	20 83       	st	Z, r18
      f6:	99 0f       	add	r25, r25
      f8:	29 2f       	mov	r18, r25
      fa:	22 0f       	add	r18, r18
      fc:	22 0f       	add	r18, r18
      fe:	92 0f       	add	r25, r18
     100:	89 1b       	sub	r24, r25
     102:	80 5d       	subi	r24, 0xD0	; 208
     104:	81 83       	std	Z+1, r24	; 0x01
     106:	12 82       	std	Z+2, r1	; 0x02
     108:	08 95       	ret

0000010a <Char_Arr_ToInt>:
     10a:	fc 01       	movw	r30, r24
     10c:	91 81       	ldd	r25, Z+1	; 0x01
     10e:	91 11       	cpse	r25, r1
     110:	03 c0       	rjmp	.+6      	; 0x118 <Char_Arr_ToInt+0xe>
     112:	80 81       	ld	r24, Z
     114:	80 53       	subi	r24, 0x30	; 48
     116:	08 95       	ret
     118:	20 81       	ld	r18, Z
     11a:	30 e0       	ldi	r19, 0x00	; 0
     11c:	20 53       	subi	r18, 0x30	; 48
     11e:	31 09       	sbc	r19, r1
     120:	22 0f       	add	r18, r18
     122:	82 2f       	mov	r24, r18
     124:	88 0f       	add	r24, r24
     126:	88 0f       	add	r24, r24
     128:	82 0f       	add	r24, r18
     12a:	89 0f       	add	r24, r25
     12c:	80 53       	subi	r24, 0x30	; 48
     12e:	08 95       	ret

00000130 <App_GetUserInput>:
     130:	80 e0       	ldi	r24, 0x00	; 0
     132:	0e 94 0f 02 	call	0x41e	; 0x41e <Keypad_read>
     136:	80 93 bb 00 	sts	0x00BB, r24	; 0x8000bb <keypad_reading>
     13a:	88 23       	and	r24, r24
     13c:	e1 f1       	breq	.+120    	; 0x1b6 <App_GetUserInput+0x86>
     13e:	90 ed       	ldi	r25, 0xD0	; 208
     140:	98 0f       	add	r25, r24
     142:	9a 30       	cpi	r25, 0x0A	; 10
     144:	10 f5       	brcc	.+68     	; 0x18a <App_GetUserInput+0x5a>
     146:	91 e0       	ldi	r25, 0x01	; 1
     148:	90 93 bf 00 	sts	0x00BF, r25	; 0x8000bf <gLcd_mode>
     14c:	90 91 c0 00 	lds	r25, 0x00C0	; 0x8000c0 <digit_count>
     150:	92 30       	cpi	r25, 0x02	; 2
     152:	d8 f4       	brcc	.+54     	; 0x18a <App_GetUserInput+0x5a>
     154:	29 2f       	mov	r18, r25
     156:	30 e0       	ldi	r19, 0x00	; 0
     158:	f9 01       	movw	r30, r18
     15a:	e8 55       	subi	r30, 0x58	; 88
     15c:	ff 4f       	sbci	r31, 0xFF	; 255
     15e:	80 83       	st	Z, r24
     160:	f9 01       	movw	r30, r18
     162:	e7 55       	subi	r30, 0x57	; 87
     164:	ff 4f       	sbci	r31, 0xFF	; 255
     166:	10 82       	st	Z, r1
     168:	9f 5f       	subi	r25, 0xFF	; 255
     16a:	90 93 c0 00 	sts	0x00C0, r25	; 0x8000c0 <digit_count>
     16e:	0e 94 31 05 	call	0xa62	; 0xa62 <LCD_clearScreen>
     172:	43 e8       	ldi	r20, 0x83	; 131
     174:	50 e0       	ldi	r21, 0x00	; 0
     176:	60 e0       	ldi	r22, 0x00	; 0
     178:	80 e0       	ldi	r24, 0x00	; 0
     17a:	0e 94 26 05 	call	0xa4c	; 0xa4c <LCD_displayStringRowColumn>
     17e:	48 ea       	ldi	r20, 0xA8	; 168
     180:	50 e0       	ldi	r21, 0x00	; 0
     182:	60 e0       	ldi	r22, 0x00	; 0
     184:	81 e0       	ldi	r24, 0x01	; 1
     186:	0e 94 26 05 	call	0xa4c	; 0xa4c <LCD_displayStringRowColumn>
     18a:	80 91 bb 00 	lds	r24, 0x00BB	; 0x8000bb <keypad_reading>
     18e:	8d 33       	cpi	r24, 0x3D	; 61
     190:	a1 f4       	brne	.+40     	; 0x1ba <App_GetUserInput+0x8a>
     192:	88 ea       	ldi	r24, 0xA8	; 168
     194:	90 e0       	ldi	r25, 0x00	; 0
     196:	0e 94 85 00 	call	0x10a	; 0x10a <Char_Arr_ToInt>
     19a:	80 93 bd 00 	sts	0x00BD, r24	; 0x8000bd <num_int>
     19e:	10 92 c0 00 	sts	0x00C0, r1	; 0x8000c0 <digit_count>
     1a2:	e8 ea       	ldi	r30, 0xA8	; 168
     1a4:	f0 e0       	ldi	r31, 0x00	; 0
     1a6:	10 82       	st	Z, r1
     1a8:	11 82       	std	Z+1, r1	; 0x01
     1aa:	12 82       	std	Z+2, r1	; 0x02
     1ac:	8f 50       	subi	r24, 0x0F	; 15
     1ae:	80 31       	cpi	r24, 0x10	; 16
     1b0:	30 f0       	brcs	.+12     	; 0x1be <App_GetUserInput+0x8e>
     1b2:	80 e0       	ldi	r24, 0x00	; 0
     1b4:	08 95       	ret
     1b6:	8f ef       	ldi	r24, 0xFF	; 255
     1b8:	08 95       	ret
     1ba:	8f ef       	ldi	r24, 0xFF	; 255
     1bc:	08 95       	ret
     1be:	81 e0       	ldi	r24, 0x01	; 1
     1c0:	08 95       	ret

000001c2 <App_MeasureCurrentTemp>:
     1c2:	80 e0       	ldi	r24, 0x00	; 0
     1c4:	0e 94 3d 05 	call	0xa7a	; 0xa7a <Lm35_GetTemp>
     1c8:	08 95       	ret

000001ca <App_AdjustTemp>:
     1ca:	68 17       	cp	r22, r24
     1cc:	70 f4       	brcc	.+28     	; 0x1ea <App_AdjustTemp+0x20>
     1ce:	20 e5       	ldi	r18, 0x50	; 80
     1d0:	40 91 60 00 	lds	r20, 0x0060	; 0x800060 <__DATA_REGION_ORIGIN__>
     1d4:	50 91 61 00 	lds	r21, 0x0061	; 0x800061 <__DATA_REGION_ORIGIN__+0x1>
     1d8:	60 91 62 00 	lds	r22, 0x0062	; 0x800062 <__DATA_REGION_ORIGIN__+0x2>
     1dc:	70 91 63 00 	lds	r23, 0x0063	; 0x800063 <__DATA_REGION_ORIGIN__+0x3>
     1e0:	80 91 64 00 	lds	r24, 0x0064	; 0x800064 <__DATA_REGION_ORIGIN__+0x4>
     1e4:	0e 94 8e 05 	call	0xb1c	; 0xb1c <Motor_moveForward>
     1e8:	08 95       	ret
     1ea:	20 e0       	ldi	r18, 0x00	; 0
     1ec:	40 91 60 00 	lds	r20, 0x0060	; 0x800060 <__DATA_REGION_ORIGIN__>
     1f0:	50 91 61 00 	lds	r21, 0x0061	; 0x800061 <__DATA_REGION_ORIGIN__+0x1>
     1f4:	60 91 62 00 	lds	r22, 0x0062	; 0x800062 <__DATA_REGION_ORIGIN__+0x2>
     1f8:	70 91 63 00 	lds	r23, 0x0063	; 0x800063 <__DATA_REGION_ORIGIN__+0x3>
     1fc:	80 91 64 00 	lds	r24, 0x0064	; 0x800064 <__DATA_REGION_ORIGIN__+0x4>
     200:	0e 94 8e 05 	call	0xb1c	; 0xb1c <Motor_moveForward>
     204:	08 95       	ret

00000206 <App_PrintCurrenTemp>:
     206:	cf 93       	push	r28
     208:	df 93       	push	r29
     20a:	00 d0       	rcall	.+0      	; 0x20c <App_PrintCurrenTemp+0x6>
     20c:	1f 92       	push	r1
     20e:	cd b7       	in	r28, 0x3d	; 61
     210:	de b7       	in	r29, 0x3e	; 62
     212:	be 01       	movw	r22, r28
     214:	6f 5f       	subi	r22, 0xFF	; 255
     216:	7f 4f       	sbci	r23, 0xFF	; 255
     218:	0e 94 6a 00 	call	0xd4	; 0xd4 <convert_2DigitInt_to_str>
     21c:	40 e9       	ldi	r20, 0x90	; 144
     21e:	50 e0       	ldi	r21, 0x00	; 0
     220:	60 e0       	ldi	r22, 0x00	; 0
     222:	80 e0       	ldi	r24, 0x00	; 0
     224:	0e 94 26 05 	call	0xa4c	; 0xa4c <LCD_displayStringRowColumn>
     228:	ae 01       	movw	r20, r28
     22a:	4f 5f       	subi	r20, 0xFF	; 255
     22c:	5f 4f       	sbci	r21, 0xFF	; 255
     22e:	60 e0       	ldi	r22, 0x00	; 0
     230:	81 e0       	ldi	r24, 0x01	; 1
     232:	0e 94 26 05 	call	0xa4c	; 0xa4c <LCD_displayStringRowColumn>
     236:	0f 90       	pop	r0
     238:	0f 90       	pop	r0
     23a:	0f 90       	pop	r0
     23c:	df 91       	pop	r29
     23e:	cf 91       	pop	r28
     240:	08 95       	ret

00000242 <app>:

void app(){
     242:	cf 93       	push	r28
	uint8_t current_temp = App_MeasureCurrentTemp();;
     244:	0e 94 e1 00 	call	0x1c2	; 0x1c2 <App_MeasureCurrentTemp>
     248:	c8 2f       	mov	r28, r24
	uint8_t fun_return=0;
	fun_return = App_GetUserInput();
     24a:	0e 94 98 00 	call	0x130	; 0x130 <App_GetUserInput>
	if (fun_return != 255){
     24e:	8f 3f       	cpi	r24, 0xFF	; 255
     250:	a1 f0       	breq	.+40     	; 0x27a <app+0x38>
		
		 if (fun_return == 1){
     252:	81 30       	cpi	r24, 0x01	; 1
     254:	39 f4       	brne	.+14     	; 0x264 <app+0x22>
			 gDesired_temp = num_int;
     256:	80 91 bd 00 	lds	r24, 0x00BD	; 0x8000bd <num_int>
     25a:	80 93 bc 00 	sts	0x00BC, r24	; 0x8000bc <gDesired_temp>
			 gLcd_mode = ACTUAL_MODE;
     25e:	10 92 bf 00 	sts	0x00BF, r1	; 0x8000bf <gLcd_mode>
     262:	0b c0       	rjmp	.+22     	; 0x27a <app+0x38>

		}
		else{
			gDesired_temp = 25;
     264:	89 e1       	ldi	r24, 0x19	; 25
     266:	80 93 bc 00 	sts	0x00BC, r24	; 0x8000bc <gDesired_temp>
			LCD_clearScreen();
     26a:	0e 94 31 05 	call	0xa62	; 0xa62 <LCD_clearScreen>
			LCD_displayStringRowColumn(0,0,"Not Valid!");
     26e:	4d e9       	ldi	r20, 0x9D	; 157
     270:	50 e0       	ldi	r21, 0x00	; 0
     272:	60 e0       	ldi	r22, 0x00	; 0
     274:	80 e0       	ldi	r24, 0x00	; 0
     276:	0e 94 26 05 	call	0xa4c	; 0xa4c <LCD_displayStringRowColumn>
			
		}
		
	}
		if(gLcd_mode == ACTUAL_MODE){							/*Desired temprature mode*/
     27a:	80 91 bf 00 	lds	r24, 0x00BF	; 0x8000bf <gLcd_mode>
     27e:	81 11       	cpse	r24, r1
     280:	08 c0       	rjmp	.+16     	; 0x292 <app+0x50>
			App_PrintCurrenTemp(current_temp);
     282:	8c 2f       	mov	r24, r28
     284:	0e 94 03 01 	call	0x206	; 0x206 <App_PrintCurrenTemp>
			App_AdjustTemp(current_temp,gDesired_temp);
     288:	60 91 bc 00 	lds	r22, 0x00BC	; 0x8000bc <gDesired_temp>
     28c:	8c 2f       	mov	r24, r28
     28e:	0e 94 e5 00 	call	0x1ca	; 0x1ca <App_AdjustTemp>
		}
	
     292:	cf 91       	pop	r28
     294:	08 95       	ret

00000296 <MapKeyPad4x4_cont>:
     296:	81 30       	cpi	r24, 0x01	; 1
     298:	29 f1       	breq	.+74     	; 0x2e4 <MapKeyPad4x4_cont+0x4e>
     29a:	38 f0       	brcs	.+14     	; 0x2aa <MapKeyPad4x4_cont+0x14>
     29c:	82 30       	cpi	r24, 0x02	; 2
     29e:	09 f4       	brne	.+2      	; 0x2a2 <MapKeyPad4x4_cont+0xc>
     2a0:	3e c0       	rjmp	.+124    	; 0x31e <MapKeyPad4x4_cont+0x88>
     2a2:	83 30       	cpi	r24, 0x03	; 3
     2a4:	09 f4       	brne	.+2      	; 0x2a8 <MapKeyPad4x4_cont+0x12>
     2a6:	56 c0       	rjmp	.+172    	; 0x354 <MapKeyPad4x4_cont+0xbe>
     2a8:	6f c0       	rjmp	.+222    	; 0x388 <MapKeyPad4x4_cont+0xf2>
     2aa:	64 e0       	ldi	r22, 0x04	; 4
     2ac:	82 e0       	ldi	r24, 0x02	; 2
     2ae:	0e 94 49 07 	call	0xe92	; 0xe92 <DIO_GetPinValue>
     2b2:	88 23       	and	r24, r24
     2b4:	09 f4       	brne	.+2      	; 0x2b8 <MapKeyPad4x4_cont+0x22>
     2b6:	6a c0       	rjmp	.+212    	; 0x38c <MapKeyPad4x4_cont+0xf6>
     2b8:	65 e0       	ldi	r22, 0x05	; 5
     2ba:	82 e0       	ldi	r24, 0x02	; 2
     2bc:	0e 94 49 07 	call	0xe92	; 0xe92 <DIO_GetPinValue>
     2c0:	88 23       	and	r24, r24
     2c2:	09 f4       	brne	.+2      	; 0x2c6 <MapKeyPad4x4_cont+0x30>
     2c4:	65 c0       	rjmp	.+202    	; 0x390 <MapKeyPad4x4_cont+0xfa>
     2c6:	66 e0       	ldi	r22, 0x06	; 6
     2c8:	82 e0       	ldi	r24, 0x02	; 2
     2ca:	0e 94 49 07 	call	0xe92	; 0xe92 <DIO_GetPinValue>
     2ce:	88 23       	and	r24, r24
     2d0:	09 f4       	brne	.+2      	; 0x2d4 <MapKeyPad4x4_cont+0x3e>
     2d2:	60 c0       	rjmp	.+192    	; 0x394 <MapKeyPad4x4_cont+0xfe>
     2d4:	67 e0       	ldi	r22, 0x07	; 7
     2d6:	82 e0       	ldi	r24, 0x02	; 2
     2d8:	0e 94 49 07 	call	0xe92	; 0xe92 <DIO_GetPinValue>
     2dc:	81 11       	cpse	r24, r1
     2de:	5c c0       	rjmp	.+184    	; 0x398 <MapKeyPad4x4_cont+0x102>
     2e0:	8f e2       	ldi	r24, 0x2F	; 47
     2e2:	08 95       	ret
     2e4:	64 e0       	ldi	r22, 0x04	; 4
     2e6:	82 e0       	ldi	r24, 0x02	; 2
     2e8:	0e 94 49 07 	call	0xe92	; 0xe92 <DIO_GetPinValue>
     2ec:	88 23       	and	r24, r24
     2ee:	09 f4       	brne	.+2      	; 0x2f2 <MapKeyPad4x4_cont+0x5c>
     2f0:	55 c0       	rjmp	.+170    	; 0x39c <MapKeyPad4x4_cont+0x106>
     2f2:	65 e0       	ldi	r22, 0x05	; 5
     2f4:	82 e0       	ldi	r24, 0x02	; 2
     2f6:	0e 94 49 07 	call	0xe92	; 0xe92 <DIO_GetPinValue>
     2fa:	88 23       	and	r24, r24
     2fc:	09 f4       	brne	.+2      	; 0x300 <MapKeyPad4x4_cont+0x6a>
     2fe:	50 c0       	rjmp	.+160    	; 0x3a0 <MapKeyPad4x4_cont+0x10a>
     300:	66 e0       	ldi	r22, 0x06	; 6
     302:	82 e0       	ldi	r24, 0x02	; 2
     304:	0e 94 49 07 	call	0xe92	; 0xe92 <DIO_GetPinValue>
     308:	88 23       	and	r24, r24
     30a:	09 f4       	brne	.+2      	; 0x30e <MapKeyPad4x4_cont+0x78>
     30c:	4b c0       	rjmp	.+150    	; 0x3a4 <MapKeyPad4x4_cont+0x10e>
     30e:	67 e0       	ldi	r22, 0x07	; 7
     310:	82 e0       	ldi	r24, 0x02	; 2
     312:	0e 94 49 07 	call	0xe92	; 0xe92 <DIO_GetPinValue>
     316:	81 11       	cpse	r24, r1
     318:	47 c0       	rjmp	.+142    	; 0x3a8 <MapKeyPad4x4_cont+0x112>
     31a:	8a e2       	ldi	r24, 0x2A	; 42
     31c:	08 95       	ret
     31e:	64 e0       	ldi	r22, 0x04	; 4
     320:	82 e0       	ldi	r24, 0x02	; 2
     322:	0e 94 49 07 	call	0xe92	; 0xe92 <DIO_GetPinValue>
     326:	88 23       	and	r24, r24
     328:	09 f4       	brne	.+2      	; 0x32c <MapKeyPad4x4_cont+0x96>
     32a:	40 c0       	rjmp	.+128    	; 0x3ac <MapKeyPad4x4_cont+0x116>
     32c:	65 e0       	ldi	r22, 0x05	; 5
     32e:	82 e0       	ldi	r24, 0x02	; 2
     330:	0e 94 49 07 	call	0xe92	; 0xe92 <DIO_GetPinValue>
     334:	88 23       	and	r24, r24
     336:	e1 f1       	breq	.+120    	; 0x3b0 <MapKeyPad4x4_cont+0x11a>
     338:	66 e0       	ldi	r22, 0x06	; 6
     33a:	82 e0       	ldi	r24, 0x02	; 2
     33c:	0e 94 49 07 	call	0xe92	; 0xe92 <DIO_GetPinValue>
     340:	88 23       	and	r24, r24
     342:	c1 f1       	breq	.+112    	; 0x3b4 <MapKeyPad4x4_cont+0x11e>
     344:	67 e0       	ldi	r22, 0x07	; 7
     346:	82 e0       	ldi	r24, 0x02	; 2
     348:	0e 94 49 07 	call	0xe92	; 0xe92 <DIO_GetPinValue>
     34c:	81 11       	cpse	r24, r1
     34e:	34 c0       	rjmp	.+104    	; 0x3b8 <MapKeyPad4x4_cont+0x122>
     350:	8d e2       	ldi	r24, 0x2D	; 45
     352:	08 95       	ret
     354:	64 e0       	ldi	r22, 0x04	; 4
     356:	82 e0       	ldi	r24, 0x02	; 2
     358:	0e 94 49 07 	call	0xe92	; 0xe92 <DIO_GetPinValue>
     35c:	88 23       	and	r24, r24
     35e:	71 f1       	breq	.+92     	; 0x3bc <MapKeyPad4x4_cont+0x126>
     360:	65 e0       	ldi	r22, 0x05	; 5
     362:	82 e0       	ldi	r24, 0x02	; 2
     364:	0e 94 49 07 	call	0xe92	; 0xe92 <DIO_GetPinValue>
     368:	88 23       	and	r24, r24
     36a:	51 f1       	breq	.+84     	; 0x3c0 <MapKeyPad4x4_cont+0x12a>
     36c:	66 e0       	ldi	r22, 0x06	; 6
     36e:	82 e0       	ldi	r24, 0x02	; 2
     370:	0e 94 49 07 	call	0xe92	; 0xe92 <DIO_GetPinValue>
     374:	88 23       	and	r24, r24
     376:	31 f1       	breq	.+76     	; 0x3c4 <MapKeyPad4x4_cont+0x12e>
     378:	67 e0       	ldi	r22, 0x07	; 7
     37a:	82 e0       	ldi	r24, 0x02	; 2
     37c:	0e 94 49 07 	call	0xe92	; 0xe92 <DIO_GetPinValue>
     380:	81 11       	cpse	r24, r1
     382:	22 c0       	rjmp	.+68     	; 0x3c8 <MapKeyPad4x4_cont+0x132>
     384:	8b e2       	ldi	r24, 0x2B	; 43
     386:	08 95       	ret
     388:	80 e0       	ldi	r24, 0x00	; 0
     38a:	08 95       	ret
     38c:	87 e3       	ldi	r24, 0x37	; 55
     38e:	08 95       	ret
     390:	88 e3       	ldi	r24, 0x38	; 56
     392:	08 95       	ret
     394:	89 e3       	ldi	r24, 0x39	; 57
     396:	08 95       	ret
     398:	80 e0       	ldi	r24, 0x00	; 0
     39a:	08 95       	ret
     39c:	84 e3       	ldi	r24, 0x34	; 52
     39e:	08 95       	ret
     3a0:	85 e3       	ldi	r24, 0x35	; 53
     3a2:	08 95       	ret
     3a4:	86 e3       	ldi	r24, 0x36	; 54
     3a6:	08 95       	ret
     3a8:	80 e0       	ldi	r24, 0x00	; 0
     3aa:	08 95       	ret
     3ac:	81 e3       	ldi	r24, 0x31	; 49
     3ae:	08 95       	ret
     3b0:	82 e3       	ldi	r24, 0x32	; 50
     3b2:	08 95       	ret
     3b4:	83 e3       	ldi	r24, 0x33	; 51
     3b6:	08 95       	ret
     3b8:	80 e0       	ldi	r24, 0x00	; 0
     3ba:	08 95       	ret
     3bc:	8f e6       	ldi	r24, 0x6F	; 111
     3be:	08 95       	ret
     3c0:	80 e3       	ldi	r24, 0x30	; 48
     3c2:	08 95       	ret
     3c4:	8d e3       	ldi	r24, 0x3D	; 61
     3c6:	08 95       	ret
     3c8:	80 e0       	ldi	r24, 0x00	; 0
     3ca:	08 95       	ret

000003cc <Keypad_init>:
     3cc:	41 e0       	ldi	r20, 0x01	; 1
     3ce:	60 e0       	ldi	r22, 0x00	; 0
     3d0:	82 e0       	ldi	r24, 0x02	; 2
     3d2:	0e 94 db 05 	call	0xbb6	; 0xbb6 <DIO_SetPinDirection>
     3d6:	41 e0       	ldi	r20, 0x01	; 1
     3d8:	61 e0       	ldi	r22, 0x01	; 1
     3da:	82 e0       	ldi	r24, 0x02	; 2
     3dc:	0e 94 db 05 	call	0xbb6	; 0xbb6 <DIO_SetPinDirection>
     3e0:	41 e0       	ldi	r20, 0x01	; 1
     3e2:	62 e0       	ldi	r22, 0x02	; 2
     3e4:	82 e0       	ldi	r24, 0x02	; 2
     3e6:	0e 94 db 05 	call	0xbb6	; 0xbb6 <DIO_SetPinDirection>
     3ea:	41 e0       	ldi	r20, 0x01	; 1
     3ec:	63 e0       	ldi	r22, 0x03	; 3
     3ee:	82 e0       	ldi	r24, 0x02	; 2
     3f0:	0e 94 db 05 	call	0xbb6	; 0xbb6 <DIO_SetPinDirection>
     3f4:	42 e0       	ldi	r20, 0x02	; 2
     3f6:	64 e0       	ldi	r22, 0x04	; 4
     3f8:	82 e0       	ldi	r24, 0x02	; 2
     3fa:	0e 94 db 05 	call	0xbb6	; 0xbb6 <DIO_SetPinDirection>
     3fe:	42 e0       	ldi	r20, 0x02	; 2
     400:	65 e0       	ldi	r22, 0x05	; 5
     402:	82 e0       	ldi	r24, 0x02	; 2
     404:	0e 94 db 05 	call	0xbb6	; 0xbb6 <DIO_SetPinDirection>
     408:	42 e0       	ldi	r20, 0x02	; 2
     40a:	66 e0       	ldi	r22, 0x06	; 6
     40c:	82 e0       	ldi	r24, 0x02	; 2
     40e:	0e 94 db 05 	call	0xbb6	; 0xbb6 <DIO_SetPinDirection>
     412:	42 e0       	ldi	r20, 0x02	; 2
     414:	67 e0       	ldi	r22, 0x07	; 7
     416:	82 e0       	ldi	r24, 0x02	; 2
     418:	0e 94 db 05 	call	0xbb6	; 0xbb6 <DIO_SetPinDirection>
     41c:	08 95       	ret

0000041e <Keypad_read>:
     41e:	0f 93       	push	r16
     420:	1f 93       	push	r17
     422:	cf 93       	push	r28
     424:	df 93       	push	r29
     426:	81 11       	cpse	r24, r1
     428:	03 c0       	rjmp	.+6      	; 0x430 <Keypad_read+0x12>
     42a:	0b ea       	ldi	r16, 0xAB	; 171
     42c:	12 e0       	ldi	r17, 0x02	; 2
     42e:	02 c0       	rjmp	.+4      	; 0x434 <Keypad_read+0x16>
     430:	0b e4       	ldi	r16, 0x4B	; 75
     432:	11 e0       	ldi	r17, 0x01	; 1
     434:	c0 e0       	ldi	r28, 0x00	; 0
     436:	d0 e0       	ldi	r29, 0x00	; 0
     438:	74 c0       	rjmp	.+232    	; 0x522 <Keypad_read+0x104>
     43a:	20 97       	sbiw	r28, 0x00	; 0
     43c:	d9 f4       	brne	.+54     	; 0x474 <Keypad_read+0x56>
     43e:	40 e0       	ldi	r20, 0x00	; 0
     440:	60 e0       	ldi	r22, 0x00	; 0
     442:	82 e0       	ldi	r24, 0x02	; 2
     444:	0e 94 a8 06 	call	0xd50	; 0xd50 <DIO_SetPinValue>
     448:	41 e0       	ldi	r20, 0x01	; 1
     44a:	61 e0       	ldi	r22, 0x01	; 1
     44c:	82 e0       	ldi	r24, 0x02	; 2
     44e:	0e 94 a8 06 	call	0xd50	; 0xd50 <DIO_SetPinValue>
     452:	41 e0       	ldi	r20, 0x01	; 1
     454:	62 e0       	ldi	r22, 0x02	; 2
     456:	82 e0       	ldi	r24, 0x02	; 2
     458:	0e 94 a8 06 	call	0xd50	; 0xd50 <DIO_SetPinValue>
     45c:	41 e0       	ldi	r20, 0x01	; 1
     45e:	63 e0       	ldi	r22, 0x03	; 3
     460:	82 e0       	ldi	r24, 0x02	; 2
     462:	0e 94 a8 06 	call	0xd50	; 0xd50 <DIO_SetPinValue>
     466:	8c 2f       	mov	r24, r28
     468:	f8 01       	movw	r30, r16
     46a:	09 95       	icall
     46c:	88 23       	and	r24, r24
     46e:	09 f4       	brne	.+2      	; 0x472 <Keypad_read+0x54>
     470:	57 c0       	rjmp	.+174    	; 0x520 <Keypad_read+0x102>
     472:	5c c0       	rjmp	.+184    	; 0x52c <Keypad_read+0x10e>
     474:	c1 30       	cpi	r28, 0x01	; 1
     476:	d1 05       	cpc	r29, r1
     478:	d1 f4       	brne	.+52     	; 0x4ae <Keypad_read+0x90>
     47a:	41 e0       	ldi	r20, 0x01	; 1
     47c:	60 e0       	ldi	r22, 0x00	; 0
     47e:	82 e0       	ldi	r24, 0x02	; 2
     480:	0e 94 a8 06 	call	0xd50	; 0xd50 <DIO_SetPinValue>
     484:	40 e0       	ldi	r20, 0x00	; 0
     486:	61 e0       	ldi	r22, 0x01	; 1
     488:	82 e0       	ldi	r24, 0x02	; 2
     48a:	0e 94 a8 06 	call	0xd50	; 0xd50 <DIO_SetPinValue>
     48e:	41 e0       	ldi	r20, 0x01	; 1
     490:	62 e0       	ldi	r22, 0x02	; 2
     492:	82 e0       	ldi	r24, 0x02	; 2
     494:	0e 94 a8 06 	call	0xd50	; 0xd50 <DIO_SetPinValue>
     498:	41 e0       	ldi	r20, 0x01	; 1
     49a:	63 e0       	ldi	r22, 0x03	; 3
     49c:	82 e0       	ldi	r24, 0x02	; 2
     49e:	0e 94 a8 06 	call	0xd50	; 0xd50 <DIO_SetPinValue>
     4a2:	8c 2f       	mov	r24, r28
     4a4:	f8 01       	movw	r30, r16
     4a6:	09 95       	icall
     4a8:	88 23       	and	r24, r24
     4aa:	d1 f1       	breq	.+116    	; 0x520 <Keypad_read+0x102>
     4ac:	3f c0       	rjmp	.+126    	; 0x52c <Keypad_read+0x10e>
     4ae:	c2 30       	cpi	r28, 0x02	; 2
     4b0:	d1 05       	cpc	r29, r1
     4b2:	d1 f4       	brne	.+52     	; 0x4e8 <Keypad_read+0xca>
     4b4:	41 e0       	ldi	r20, 0x01	; 1
     4b6:	60 e0       	ldi	r22, 0x00	; 0
     4b8:	82 e0       	ldi	r24, 0x02	; 2
     4ba:	0e 94 a8 06 	call	0xd50	; 0xd50 <DIO_SetPinValue>
     4be:	41 e0       	ldi	r20, 0x01	; 1
     4c0:	61 e0       	ldi	r22, 0x01	; 1
     4c2:	82 e0       	ldi	r24, 0x02	; 2
     4c4:	0e 94 a8 06 	call	0xd50	; 0xd50 <DIO_SetPinValue>
     4c8:	40 e0       	ldi	r20, 0x00	; 0
     4ca:	62 e0       	ldi	r22, 0x02	; 2
     4cc:	82 e0       	ldi	r24, 0x02	; 2
     4ce:	0e 94 a8 06 	call	0xd50	; 0xd50 <DIO_SetPinValue>
     4d2:	41 e0       	ldi	r20, 0x01	; 1
     4d4:	63 e0       	ldi	r22, 0x03	; 3
     4d6:	82 e0       	ldi	r24, 0x02	; 2
     4d8:	0e 94 a8 06 	call	0xd50	; 0xd50 <DIO_SetPinValue>
     4dc:	8c 2f       	mov	r24, r28
     4de:	f8 01       	movw	r30, r16
     4e0:	09 95       	icall
     4e2:	88 23       	and	r24, r24
     4e4:	e9 f0       	breq	.+58     	; 0x520 <Keypad_read+0x102>
     4e6:	22 c0       	rjmp	.+68     	; 0x52c <Keypad_read+0x10e>
     4e8:	c3 30       	cpi	r28, 0x03	; 3
     4ea:	d1 05       	cpc	r29, r1
     4ec:	c9 f4       	brne	.+50     	; 0x520 <Keypad_read+0x102>
     4ee:	41 e0       	ldi	r20, 0x01	; 1
     4f0:	60 e0       	ldi	r22, 0x00	; 0
     4f2:	82 e0       	ldi	r24, 0x02	; 2
     4f4:	0e 94 a8 06 	call	0xd50	; 0xd50 <DIO_SetPinValue>
     4f8:	41 e0       	ldi	r20, 0x01	; 1
     4fa:	61 e0       	ldi	r22, 0x01	; 1
     4fc:	82 e0       	ldi	r24, 0x02	; 2
     4fe:	0e 94 a8 06 	call	0xd50	; 0xd50 <DIO_SetPinValue>
     502:	41 e0       	ldi	r20, 0x01	; 1
     504:	62 e0       	ldi	r22, 0x02	; 2
     506:	82 e0       	ldi	r24, 0x02	; 2
     508:	0e 94 a8 06 	call	0xd50	; 0xd50 <DIO_SetPinValue>
     50c:	40 e0       	ldi	r20, 0x00	; 0
     50e:	63 e0       	ldi	r22, 0x03	; 3
     510:	82 e0       	ldi	r24, 0x02	; 2
     512:	0e 94 a8 06 	call	0xd50	; 0xd50 <DIO_SetPinValue>
     516:	8c 2f       	mov	r24, r28
     518:	f8 01       	movw	r30, r16
     51a:	09 95       	icall
     51c:	81 11       	cpse	r24, r1
     51e:	06 c0       	rjmp	.+12     	; 0x52c <Keypad_read+0x10e>
     520:	21 96       	adiw	r28, 0x01	; 1
     522:	c4 30       	cpi	r28, 0x04	; 4
     524:	d1 05       	cpc	r29, r1
     526:	0c f4       	brge	.+2      	; 0x52a <Keypad_read+0x10c>
     528:	88 cf       	rjmp	.-240    	; 0x43a <Keypad_read+0x1c>
     52a:	80 e0       	ldi	r24, 0x00	; 0
     52c:	df 91       	pop	r29
     52e:	cf 91       	pop	r28
     530:	1f 91       	pop	r17
     532:	0f 91       	pop	r16
     534:	08 95       	ret

00000536 <read_one_press>:
     536:	cf 93       	push	r28
     538:	df 93       	push	r29
     53a:	ea 01       	movw	r28, r20
     53c:	0e 94 49 07 	call	0xe92	; 0xe92 <DIO_GetPinValue>
     540:	98 81       	ld	r25, Y
     542:	89 13       	cpse	r24, r25
     544:	02 c0       	rjmp	.+4      	; 0x54a <read_one_press+0x14>
     546:	92 e0       	ldi	r25, 0x02	; 2
     548:	01 c0       	rjmp	.+2      	; 0x54c <read_one_press+0x16>
     54a:	98 2f       	mov	r25, r24
     54c:	88 83       	st	Y, r24
     54e:	89 2f       	mov	r24, r25
     550:	df 91       	pop	r29
     552:	cf 91       	pop	r28
     554:	08 95       	ret

00000556 <MapKeyPad4x4_OnePress>:
     556:	81 30       	cpi	r24, 0x01	; 1
     558:	69 f1       	breq	.+90     	; 0x5b4 <MapKeyPad4x4_OnePress+0x5e>
     55a:	38 f0       	brcs	.+14     	; 0x56a <MapKeyPad4x4_OnePress+0x14>
     55c:	82 30       	cpi	r24, 0x02	; 2
     55e:	09 f4       	brne	.+2      	; 0x562 <MapKeyPad4x4_OnePress+0xc>
     560:	4e c0       	rjmp	.+156    	; 0x5fe <MapKeyPad4x4_OnePress+0xa8>
     562:	83 30       	cpi	r24, 0x03	; 3
     564:	09 f4       	brne	.+2      	; 0x568 <MapKeyPad4x4_OnePress+0x12>
     566:	70 c0       	rjmp	.+224    	; 0x648 <MapKeyPad4x4_OnePress+0xf2>
     568:	91 c0       	rjmp	.+290    	; 0x68c <MapKeyPad4x4_OnePress+0x136>
     56a:	4b ea       	ldi	r20, 0xAB	; 171
     56c:	50 e0       	ldi	r21, 0x00	; 0
     56e:	64 e0       	ldi	r22, 0x04	; 4
     570:	82 e0       	ldi	r24, 0x02	; 2
     572:	0e 94 9b 02 	call	0x536	; 0x536 <read_one_press>
     576:	88 23       	and	r24, r24
     578:	09 f4       	brne	.+2      	; 0x57c <MapKeyPad4x4_OnePress+0x26>
     57a:	8a c0       	rjmp	.+276    	; 0x690 <MapKeyPad4x4_OnePress+0x13a>
     57c:	4c ea       	ldi	r20, 0xAC	; 172
     57e:	50 e0       	ldi	r21, 0x00	; 0
     580:	65 e0       	ldi	r22, 0x05	; 5
     582:	82 e0       	ldi	r24, 0x02	; 2
     584:	0e 94 9b 02 	call	0x536	; 0x536 <read_one_press>
     588:	88 23       	and	r24, r24
     58a:	09 f4       	brne	.+2      	; 0x58e <MapKeyPad4x4_OnePress+0x38>
     58c:	83 c0       	rjmp	.+262    	; 0x694 <MapKeyPad4x4_OnePress+0x13e>
     58e:	4d ea       	ldi	r20, 0xAD	; 173
     590:	50 e0       	ldi	r21, 0x00	; 0
     592:	66 e0       	ldi	r22, 0x06	; 6
     594:	82 e0       	ldi	r24, 0x02	; 2
     596:	0e 94 9b 02 	call	0x536	; 0x536 <read_one_press>
     59a:	88 23       	and	r24, r24
     59c:	09 f4       	brne	.+2      	; 0x5a0 <MapKeyPad4x4_OnePress+0x4a>
     59e:	7c c0       	rjmp	.+248    	; 0x698 <MapKeyPad4x4_OnePress+0x142>
     5a0:	4e ea       	ldi	r20, 0xAE	; 174
     5a2:	50 e0       	ldi	r21, 0x00	; 0
     5a4:	67 e0       	ldi	r22, 0x07	; 7
     5a6:	82 e0       	ldi	r24, 0x02	; 2
     5a8:	0e 94 9b 02 	call	0x536	; 0x536 <read_one_press>
     5ac:	81 11       	cpse	r24, r1
     5ae:	76 c0       	rjmp	.+236    	; 0x69c <MapKeyPad4x4_OnePress+0x146>
     5b0:	8f e2       	ldi	r24, 0x2F	; 47
     5b2:	08 95       	ret
     5b4:	4f ea       	ldi	r20, 0xAF	; 175
     5b6:	50 e0       	ldi	r21, 0x00	; 0
     5b8:	64 e0       	ldi	r22, 0x04	; 4
     5ba:	82 e0       	ldi	r24, 0x02	; 2
     5bc:	0e 94 9b 02 	call	0x536	; 0x536 <read_one_press>
     5c0:	88 23       	and	r24, r24
     5c2:	09 f4       	brne	.+2      	; 0x5c6 <MapKeyPad4x4_OnePress+0x70>
     5c4:	6d c0       	rjmp	.+218    	; 0x6a0 <MapKeyPad4x4_OnePress+0x14a>
     5c6:	40 eb       	ldi	r20, 0xB0	; 176
     5c8:	50 e0       	ldi	r21, 0x00	; 0
     5ca:	65 e0       	ldi	r22, 0x05	; 5
     5cc:	82 e0       	ldi	r24, 0x02	; 2
     5ce:	0e 94 9b 02 	call	0x536	; 0x536 <read_one_press>
     5d2:	88 23       	and	r24, r24
     5d4:	09 f4       	brne	.+2      	; 0x5d8 <MapKeyPad4x4_OnePress+0x82>
     5d6:	66 c0       	rjmp	.+204    	; 0x6a4 <MapKeyPad4x4_OnePress+0x14e>
     5d8:	41 eb       	ldi	r20, 0xB1	; 177
     5da:	50 e0       	ldi	r21, 0x00	; 0
     5dc:	66 e0       	ldi	r22, 0x06	; 6
     5de:	82 e0       	ldi	r24, 0x02	; 2
     5e0:	0e 94 9b 02 	call	0x536	; 0x536 <read_one_press>
     5e4:	88 23       	and	r24, r24
     5e6:	09 f4       	brne	.+2      	; 0x5ea <MapKeyPad4x4_OnePress+0x94>
     5e8:	5f c0       	rjmp	.+190    	; 0x6a8 <MapKeyPad4x4_OnePress+0x152>
     5ea:	42 eb       	ldi	r20, 0xB2	; 178
     5ec:	50 e0       	ldi	r21, 0x00	; 0
     5ee:	67 e0       	ldi	r22, 0x07	; 7
     5f0:	82 e0       	ldi	r24, 0x02	; 2
     5f2:	0e 94 9b 02 	call	0x536	; 0x536 <read_one_press>
     5f6:	81 11       	cpse	r24, r1
     5f8:	59 c0       	rjmp	.+178    	; 0x6ac <MapKeyPad4x4_OnePress+0x156>
     5fa:	8a e2       	ldi	r24, 0x2A	; 42
     5fc:	08 95       	ret
     5fe:	43 eb       	ldi	r20, 0xB3	; 179
     600:	50 e0       	ldi	r21, 0x00	; 0
     602:	64 e0       	ldi	r22, 0x04	; 4
     604:	82 e0       	ldi	r24, 0x02	; 2
     606:	0e 94 9b 02 	call	0x536	; 0x536 <read_one_press>
     60a:	88 23       	and	r24, r24
     60c:	09 f4       	brne	.+2      	; 0x610 <MapKeyPad4x4_OnePress+0xba>
     60e:	50 c0       	rjmp	.+160    	; 0x6b0 <MapKeyPad4x4_OnePress+0x15a>
     610:	44 eb       	ldi	r20, 0xB4	; 180
     612:	50 e0       	ldi	r21, 0x00	; 0
     614:	65 e0       	ldi	r22, 0x05	; 5
     616:	82 e0       	ldi	r24, 0x02	; 2
     618:	0e 94 9b 02 	call	0x536	; 0x536 <read_one_press>
     61c:	88 23       	and	r24, r24
     61e:	09 f4       	brne	.+2      	; 0x622 <MapKeyPad4x4_OnePress+0xcc>
     620:	49 c0       	rjmp	.+146    	; 0x6b4 <MapKeyPad4x4_OnePress+0x15e>
     622:	45 eb       	ldi	r20, 0xB5	; 181
     624:	50 e0       	ldi	r21, 0x00	; 0
     626:	66 e0       	ldi	r22, 0x06	; 6
     628:	82 e0       	ldi	r24, 0x02	; 2
     62a:	0e 94 9b 02 	call	0x536	; 0x536 <read_one_press>
     62e:	88 23       	and	r24, r24
     630:	09 f4       	brne	.+2      	; 0x634 <MapKeyPad4x4_OnePress+0xde>
     632:	42 c0       	rjmp	.+132    	; 0x6b8 <MapKeyPad4x4_OnePress+0x162>
     634:	46 eb       	ldi	r20, 0xB6	; 182
     636:	50 e0       	ldi	r21, 0x00	; 0
     638:	67 e0       	ldi	r22, 0x07	; 7
     63a:	82 e0       	ldi	r24, 0x02	; 2
     63c:	0e 94 9b 02 	call	0x536	; 0x536 <read_one_press>
     640:	81 11       	cpse	r24, r1
     642:	3c c0       	rjmp	.+120    	; 0x6bc <MapKeyPad4x4_OnePress+0x166>
     644:	8d e2       	ldi	r24, 0x2D	; 45
     646:	08 95       	ret
     648:	47 eb       	ldi	r20, 0xB7	; 183
     64a:	50 e0       	ldi	r21, 0x00	; 0
     64c:	64 e0       	ldi	r22, 0x04	; 4
     64e:	82 e0       	ldi	r24, 0x02	; 2
     650:	0e 94 9b 02 	call	0x536	; 0x536 <read_one_press>
     654:	88 23       	and	r24, r24
     656:	a1 f1       	breq	.+104    	; 0x6c0 <MapKeyPad4x4_OnePress+0x16a>
     658:	48 eb       	ldi	r20, 0xB8	; 184
     65a:	50 e0       	ldi	r21, 0x00	; 0
     65c:	65 e0       	ldi	r22, 0x05	; 5
     65e:	82 e0       	ldi	r24, 0x02	; 2
     660:	0e 94 9b 02 	call	0x536	; 0x536 <read_one_press>
     664:	88 23       	and	r24, r24
     666:	71 f1       	breq	.+92     	; 0x6c4 <MapKeyPad4x4_OnePress+0x16e>
     668:	49 eb       	ldi	r20, 0xB9	; 185
     66a:	50 e0       	ldi	r21, 0x00	; 0
     66c:	66 e0       	ldi	r22, 0x06	; 6
     66e:	82 e0       	ldi	r24, 0x02	; 2
     670:	0e 94 9b 02 	call	0x536	; 0x536 <read_one_press>
     674:	88 23       	and	r24, r24
     676:	41 f1       	breq	.+80     	; 0x6c8 <MapKeyPad4x4_OnePress+0x172>
     678:	4a eb       	ldi	r20, 0xBA	; 186
     67a:	50 e0       	ldi	r21, 0x00	; 0
     67c:	67 e0       	ldi	r22, 0x07	; 7
     67e:	82 e0       	ldi	r24, 0x02	; 2
     680:	0e 94 9b 02 	call	0x536	; 0x536 <read_one_press>
     684:	81 11       	cpse	r24, r1
     686:	22 c0       	rjmp	.+68     	; 0x6cc <MapKeyPad4x4_OnePress+0x176>
     688:	8b e2       	ldi	r24, 0x2B	; 43
     68a:	08 95       	ret
     68c:	80 e0       	ldi	r24, 0x00	; 0
     68e:	08 95       	ret
     690:	87 e3       	ldi	r24, 0x37	; 55
     692:	08 95       	ret
     694:	88 e3       	ldi	r24, 0x38	; 56
     696:	08 95       	ret
     698:	89 e3       	ldi	r24, 0x39	; 57
     69a:	08 95       	ret
     69c:	80 e0       	ldi	r24, 0x00	; 0
     69e:	08 95       	ret
     6a0:	84 e3       	ldi	r24, 0x34	; 52
     6a2:	08 95       	ret
     6a4:	85 e3       	ldi	r24, 0x35	; 53
     6a6:	08 95       	ret
     6a8:	86 e3       	ldi	r24, 0x36	; 54
     6aa:	08 95       	ret
     6ac:	80 e0       	ldi	r24, 0x00	; 0
     6ae:	08 95       	ret
     6b0:	81 e3       	ldi	r24, 0x31	; 49
     6b2:	08 95       	ret
     6b4:	82 e3       	ldi	r24, 0x32	; 50
     6b6:	08 95       	ret
     6b8:	83 e3       	ldi	r24, 0x33	; 51
     6ba:	08 95       	ret
     6bc:	80 e0       	ldi	r24, 0x00	; 0
     6be:	08 95       	ret
     6c0:	8f e6       	ldi	r24, 0x6F	; 111
     6c2:	08 95       	ret
     6c4:	80 e3       	ldi	r24, 0x30	; 48
     6c6:	08 95       	ret
     6c8:	8d e3       	ldi	r24, 0x3D	; 61
     6ca:	08 95       	ret
     6cc:	80 e0       	ldi	r24, 0x00	; 0
     6ce:	08 95       	ret

000006d0 <LCD_sendCommand>:
	LCD_sendCommand(CURSOR_OFF); /* cursor off */
	LCD_sendCommand(CLEAR_COMMAND); /* clear LCD at the beginning */
}

void LCD_sendCommand(uint8_t command)
{
     6d0:	0f 93       	push	r16
     6d2:	1f 93       	push	r17
     6d4:	cf 93       	push	r28
     6d6:	c8 2f       	mov	r28, r24
	//CLEAR_BIT(LCD_CTRL_PORT,RS); /* Instruction Mode RS=0 */
	DIO_SetPinValue(LCD_CTRL_PORT, RS, LOW);
     6d8:	40 e0       	ldi	r20, 0x00	; 0
     6da:	61 e0       	ldi	r22, 0x01	; 1
     6dc:	83 e0       	ldi	r24, 0x03	; 3
     6de:	0e 94 a8 06 	call	0xd50	; 0xd50 <DIO_SetPinValue>
	
	//CLEAR_BIT(LCD_CTRL_PORT,RW); /* write data to LCD so RW=0 */
	DIO_SetPinValue(LCD_CTRL_PORT, RW, LOW);
     6e2:	40 e0       	ldi	r20, 0x00	; 0
     6e4:	62 e0       	ldi	r22, 0x02	; 2
     6e6:	83 e0       	ldi	r24, 0x03	; 3
     6e8:	0e 94 a8 06 	call	0xd50	; 0xd50 <DIO_SetPinValue>
	
	//delay_us(1); /* delay for processing Tas = 50ns */
	Timer_Delay(0.000001, timer0_config1);
     6ec:	00 91 65 00 	lds	r16, 0x0065	; 0x800065 <timer0_config1>
     6f0:	10 91 66 00 	lds	r17, 0x0066	; 0x800066 <timer0_config1+0x1>
     6f4:	20 91 67 00 	lds	r18, 0x0067	; 0x800067 <timer0_config1+0x2>
     6f8:	30 91 68 00 	lds	r19, 0x0068	; 0x800068 <timer0_config1+0x3>
     6fc:	40 91 69 00 	lds	r20, 0x0069	; 0x800069 <timer0_config1+0x4>
     700:	50 91 6a 00 	lds	r21, 0x006A	; 0x80006a <timer0_config1+0x5>
     704:	6d eb       	ldi	r22, 0xBD	; 189
     706:	77 e3       	ldi	r23, 0x37	; 55
     708:	86 e8       	ldi	r24, 0x86	; 134
     70a:	95 e3       	ldi	r25, 0x35	; 53
     70c:	0e 94 18 09 	call	0x1230	; 0x1230 <Timer_Delay>
	
	//SET_BIT(LCD_CTRL_PORT,E); /* Enable LCD E=1 */
	DIO_SetPinValue(LCD_CTRL_PORT, E, HIGH);
     710:	41 e0       	ldi	r20, 0x01	; 1
     712:	63 e0       	ldi	r22, 0x03	; 3
     714:	83 e0       	ldi	r24, 0x03	; 3
     716:	0e 94 a8 06 	call	0xd50	; 0xd50 <DIO_SetPinValue>
	
	//delay_us(1); /* delay for processing Tpw - Tdws = 190ns */
	Timer_Delay(0.000001, timer0_config1);
     71a:	00 91 65 00 	lds	r16, 0x0065	; 0x800065 <timer0_config1>
     71e:	10 91 66 00 	lds	r17, 0x0066	; 0x800066 <timer0_config1+0x1>
     722:	20 91 67 00 	lds	r18, 0x0067	; 0x800067 <timer0_config1+0x2>
     726:	30 91 68 00 	lds	r19, 0x0068	; 0x800068 <timer0_config1+0x3>
     72a:	40 91 69 00 	lds	r20, 0x0069	; 0x800069 <timer0_config1+0x4>
     72e:	50 91 6a 00 	lds	r21, 0x006A	; 0x80006a <timer0_config1+0x5>
     732:	6d eb       	ldi	r22, 0xBD	; 189
     734:	77 e3       	ldi	r23, 0x37	; 55
     736:	86 e8       	ldi	r24, 0x86	; 134
     738:	95 e3       	ldi	r25, 0x35	; 53
     73a:	0e 94 18 09 	call	0x1230	; 0x1230 <Timer_Delay>
	
#if (DATA_BITS_MODE == 4)
	/* out the highest 4 bits of the required command to the data bus D4 --> D7 */
	#ifdef UPPER_PORT_PINS
		//LCD_DATA_PORT = (LCD_DATA_PORT & 0x0F) | (command & 0xF0);
		DIO_SetUpperHalfPortValue(LCD_DATA_PORT, (command & 0xF0));
     73e:	6c 2f       	mov	r22, r28
     740:	60 7f       	andi	r22, 0xF0	; 240
     742:	83 e0       	ldi	r24, 0x03	; 3
     744:	0e 94 2d 07 	call	0xe5a	; 0xe5a <DIO_SetUpperHalfPortValue>
		//DIO_SetPortValue(LCD_DATA_PORT, (command & 0xF0) >> 4);
		DIO_SetLowerHalfPortValue(LCD_DATA_PORT, (command & 0xF0) >> 4);
#endif

	//delay_us(1); /* delay for processing Tdsw = 100ns */
	Timer_Delay(0.000001, timer0_config1);
     748:	00 91 65 00 	lds	r16, 0x0065	; 0x800065 <timer0_config1>
     74c:	10 91 66 00 	lds	r17, 0x0066	; 0x800066 <timer0_config1+0x1>
     750:	20 91 67 00 	lds	r18, 0x0067	; 0x800067 <timer0_config1+0x2>
     754:	30 91 68 00 	lds	r19, 0x0068	; 0x800068 <timer0_config1+0x3>
     758:	40 91 69 00 	lds	r20, 0x0069	; 0x800069 <timer0_config1+0x4>
     75c:	50 91 6a 00 	lds	r21, 0x006A	; 0x80006a <timer0_config1+0x5>
     760:	6d eb       	ldi	r22, 0xBD	; 189
     762:	77 e3       	ldi	r23, 0x37	; 55
     764:	86 e8       	ldi	r24, 0x86	; 134
     766:	95 e3       	ldi	r25, 0x35	; 53
     768:	0e 94 18 09 	call	0x1230	; 0x1230 <Timer_Delay>
	
	//CLEAR_BIT(LCD_CTRL_PORT,E); /* disable LCD E=0 */
	DIO_SetPinValue(LCD_CTRL_PORT, E, LOW);
     76c:	40 e0       	ldi	r20, 0x00	; 0
     76e:	63 e0       	ldi	r22, 0x03	; 3
     770:	83 e0       	ldi	r24, 0x03	; 3
     772:	0e 94 a8 06 	call	0xd50	; 0xd50 <DIO_SetPinValue>
	
	//delay_us(1); /* delay for processing Th = 13ns */
	Timer_Delay(0.000001, timer0_config1);
     776:	00 91 65 00 	lds	r16, 0x0065	; 0x800065 <timer0_config1>
     77a:	10 91 66 00 	lds	r17, 0x0066	; 0x800066 <timer0_config1+0x1>
     77e:	20 91 67 00 	lds	r18, 0x0067	; 0x800067 <timer0_config1+0x2>
     782:	30 91 68 00 	lds	r19, 0x0068	; 0x800068 <timer0_config1+0x3>
     786:	40 91 69 00 	lds	r20, 0x0069	; 0x800069 <timer0_config1+0x4>
     78a:	50 91 6a 00 	lds	r21, 0x006A	; 0x80006a <timer0_config1+0x5>
     78e:	6d eb       	ldi	r22, 0xBD	; 189
     790:	77 e3       	ldi	r23, 0x37	; 55
     792:	86 e8       	ldi	r24, 0x86	; 134
     794:	95 e3       	ldi	r25, 0x35	; 53
     796:	0e 94 18 09 	call	0x1230	; 0x1230 <Timer_Delay>
	
//	SET_BIT(LCD_CTRL_PORT,E); /* Enable LCD E=1 */
	DIO_SetPinValue(LCD_CTRL_PORT, E, HIGH);
     79a:	41 e0       	ldi	r20, 0x01	; 1
     79c:	63 e0       	ldi	r22, 0x03	; 3
     79e:	83 e0       	ldi	r24, 0x03	; 3
     7a0:	0e 94 a8 06 	call	0xd50	; 0xd50 <DIO_SetPinValue>
	//delay_us(1); /* delay for processing Tpw - Tdws = 190ns */
	Timer_Delay(0.000001, timer0_config1);
     7a4:	00 91 65 00 	lds	r16, 0x0065	; 0x800065 <timer0_config1>
     7a8:	10 91 66 00 	lds	r17, 0x0066	; 0x800066 <timer0_config1+0x1>
     7ac:	20 91 67 00 	lds	r18, 0x0067	; 0x800067 <timer0_config1+0x2>
     7b0:	30 91 68 00 	lds	r19, 0x0068	; 0x800068 <timer0_config1+0x3>
     7b4:	40 91 69 00 	lds	r20, 0x0069	; 0x800069 <timer0_config1+0x4>
     7b8:	50 91 6a 00 	lds	r21, 0x006A	; 0x80006a <timer0_config1+0x5>
     7bc:	6d eb       	ldi	r22, 0xBD	; 189
     7be:	77 e3       	ldi	r23, 0x37	; 55
     7c0:	86 e8       	ldi	r24, 0x86	; 134
     7c2:	95 e3       	ldi	r25, 0x35	; 53
     7c4:	0e 94 18 09 	call	0x1230	; 0x1230 <Timer_Delay>

	/* out the lowest 4 bits of the required command to the data bus D4 --> D7 */
#ifdef UPPER_PORT_PINS
	//LCD_DATA_PORT = (LCD_DATA_PORT & 0x0F) | ((command & 0x0F) << 4);
	DIO_SetUpperHalfPortValue(LCD_DATA_PORT, ((command & 0x0F) << 4));
     7c8:	80 e1       	ldi	r24, 0x10	; 16
     7ca:	c8 9f       	mul	r28, r24
     7cc:	b0 01       	movw	r22, r0
     7ce:	11 24       	eor	r1, r1
     7d0:	83 e0       	ldi	r24, 0x03	; 3
     7d2:	0e 94 2d 07 	call	0xe5a	; 0xe5a <DIO_SetUpperHalfPortValue>
	//LCD_DATA_PORT = (LCD_DATA_PORT & 0xF0) | (command & 0x0F);
	DIO_SetLowerHalfPortValue(LCD_DATA_PORT, (command & 0x0F));
#endif

	//delay_us(1); /* delay for processing Tdsw = 100ns */
	Timer_Delay(0.000001, timer0_config1);
     7d6:	00 91 65 00 	lds	r16, 0x0065	; 0x800065 <timer0_config1>
     7da:	10 91 66 00 	lds	r17, 0x0066	; 0x800066 <timer0_config1+0x1>
     7de:	20 91 67 00 	lds	r18, 0x0067	; 0x800067 <timer0_config1+0x2>
     7e2:	30 91 68 00 	lds	r19, 0x0068	; 0x800068 <timer0_config1+0x3>
     7e6:	40 91 69 00 	lds	r20, 0x0069	; 0x800069 <timer0_config1+0x4>
     7ea:	50 91 6a 00 	lds	r21, 0x006A	; 0x80006a <timer0_config1+0x5>
     7ee:	6d eb       	ldi	r22, 0xBD	; 189
     7f0:	77 e3       	ldi	r23, 0x37	; 55
     7f2:	86 e8       	ldi	r24, 0x86	; 134
     7f4:	95 e3       	ldi	r25, 0x35	; 53
     7f6:	0e 94 18 09 	call	0x1230	; 0x1230 <Timer_Delay>
	
	//CLEAR_BIT(LCD_CTRL_PORT,E); /* disable LCD E=0 */
	DIO_SetPinValue(LCD_CTRL_PORT, E, LOW);
     7fa:	40 e0       	ldi	r20, 0x00	; 0
     7fc:	63 e0       	ldi	r22, 0x03	; 3
     7fe:	83 e0       	ldi	r24, 0x03	; 3
     800:	0e 94 a8 06 	call	0xd50	; 0xd50 <DIO_SetPinValue>
	
	//delay_us(1); /* delay for processing Th = 13ns */
	Timer_Delay(0.000001, timer0_config1);
     804:	00 91 65 00 	lds	r16, 0x0065	; 0x800065 <timer0_config1>
     808:	10 91 66 00 	lds	r17, 0x0066	; 0x800066 <timer0_config1+0x1>
     80c:	20 91 67 00 	lds	r18, 0x0067	; 0x800067 <timer0_config1+0x2>
     810:	30 91 68 00 	lds	r19, 0x0068	; 0x800068 <timer0_config1+0x3>
     814:	40 91 69 00 	lds	r20, 0x0069	; 0x800069 <timer0_config1+0x4>
     818:	50 91 6a 00 	lds	r21, 0x006A	; 0x80006a <timer0_config1+0x5>
     81c:	6d eb       	ldi	r22, 0xBD	; 189
     81e:	77 e3       	ldi	r23, 0x37	; 55
     820:	86 e8       	ldi	r24, 0x86	; 134
     822:	95 e3       	ldi	r25, 0x35	; 53
     824:	0e 94 18 09 	call	0x1230	; 0x1230 <Timer_Delay>
	DIO_SetPinValue(LCD_CTRL_PORT, E, LOW);
	
	//delay_us(1); /* delay for processing Th = 13ns */
	Timer_Delay(0.000001, timer0_config1);
#endif
}
     828:	cf 91       	pop	r28
     82a:	1f 91       	pop	r17
     82c:	0f 91       	pop	r16
     82e:	08 95       	ret

00000830 <LCD_init>:
 *                      Functions Definitions                                  *
 *******************************************************************************/
void LCD_init(void)
{
//	LCD_CTRL_PORT_DIR |= (1<<E) | (1<<RS) | (1<<RW); /* Configure the control pins(E,RS,RW) as output pins */
	DIO_SetPinDirection(LCD_CTRL_PORT_DIR, E, OUTPUT);
     830:	41 e0       	ldi	r20, 0x01	; 1
     832:	63 e0       	ldi	r22, 0x03	; 3
     834:	83 e0       	ldi	r24, 0x03	; 3
     836:	0e 94 db 05 	call	0xbb6	; 0xbb6 <DIO_SetPinDirection>
	DIO_SetPinDirection(LCD_CTRL_PORT_DIR, RS, OUTPUT);
     83a:	41 e0       	ldi	r20, 0x01	; 1
     83c:	61 e0       	ldi	r22, 0x01	; 1
     83e:	83 e0       	ldi	r24, 0x03	; 3
     840:	0e 94 db 05 	call	0xbb6	; 0xbb6 <DIO_SetPinDirection>
	DIO_SetPinDirection(LCD_CTRL_PORT_DIR, RW, OUTPUT);
     844:	41 e0       	ldi	r20, 0x01	; 1
     846:	62 e0       	ldi	r22, 0x02	; 2
     848:	83 e0       	ldi	r24, 0x03	; 3
     84a:	0e 94 db 05 	call	0xbb6	; 0xbb6 <DIO_SetPinDirection>
	
	DIO_SetPortValue(LCD_CTRL_PORT_DIR, 0x00);
     84e:	60 e0       	ldi	r22, 0x00	; 0
     850:	83 e0       	ldi	r24, 0x03	; 3
     852:	0e 94 1d 07 	call	0xe3a	; 0xe3a <DIO_SetPortValue>
	DIO_SetPortValue(LCD_DATA_PORT_DIR, 0x00);
     856:	60 e0       	ldi	r22, 0x00	; 0
     858:	83 e0       	ldi	r24, 0x03	; 3
     85a:	0e 94 1d 07 	call	0xe3a	; 0xe3a <DIO_SetPortValue>

	#if (DATA_BITS_MODE == 4)
		#ifdef UPPER_PORT_PINS
			//LCD_DATA_PORT_DIR |= 0xF0; /* Configure the highest 4 bits of the data port as output pins */
			DIO_SetPinDirection(LCD_DATA_PORT_DIR, 4, OUTPUT);
     85e:	41 e0       	ldi	r20, 0x01	; 1
     860:	64 e0       	ldi	r22, 0x04	; 4
     862:	83 e0       	ldi	r24, 0x03	; 3
     864:	0e 94 db 05 	call	0xbb6	; 0xbb6 <DIO_SetPinDirection>
			DIO_SetPinDirection(LCD_DATA_PORT_DIR, 5, OUTPUT);
     868:	41 e0       	ldi	r20, 0x01	; 1
     86a:	65 e0       	ldi	r22, 0x05	; 5
     86c:	83 e0       	ldi	r24, 0x03	; 3
     86e:	0e 94 db 05 	call	0xbb6	; 0xbb6 <DIO_SetPinDirection>
			DIO_SetPinDirection(LCD_DATA_PORT_DIR, 6, OUTPUT);
     872:	41 e0       	ldi	r20, 0x01	; 1
     874:	66 e0       	ldi	r22, 0x06	; 6
     876:	83 e0       	ldi	r24, 0x03	; 3
     878:	0e 94 db 05 	call	0xbb6	; 0xbb6 <DIO_SetPinDirection>
			DIO_SetPinDirection(LCD_DATA_PORT_DIR, 7, OUTPUT);
     87c:	41 e0       	ldi	r20, 0x01	; 1
     87e:	67 e0       	ldi	r22, 0x07	; 7
     880:	83 e0       	ldi	r24, 0x03	; 3
     882:	0e 94 db 05 	call	0xbb6	; 0xbb6 <DIO_SetPinDirection>
			DIO_SetPinDirection(LCD_DATA_PORT_DIR, 0, OUTPUT);
			DIO_SetPinDirection(LCD_DATA_PORT_DIR, 1, OUTPUT);
			DIO_SetPinDirection(LCD_DATA_PORT_DIR, 2, OUTPUT);
			DIO_SetPinDirection(LCD_DATA_PORT_DIR, 3, OUTPUT);
		#endif
		LCD_sendCommand(FOUR_BITS_DATA_MODE); /* initialize LCD in 4-bit mode */
     886:	82 e0       	ldi	r24, 0x02	; 2
     888:	0e 94 68 03 	call	0x6d0	; 0x6d0 <LCD_sendCommand>
		LCD_sendCommand(TWO_LINE_LCD_Four_BIT_MODE); /* use 2-line lcd + 4-bit Data Mode + 5*7 dot display Mode */
     88c:	88 e2       	ldi	r24, 0x28	; 40
     88e:	0e 94 68 03 	call	0x6d0	; 0x6d0 <LCD_sendCommand>
		//LCD_DATA_PORT_DIR = 0xFF; /* Configure the data port as output port */
		DIO_SetPortDirection(LCD_DATA_PORT_DIR, OUTPUT);
		LCD_sendCommand(TWO_LINE_LCD_Eight_BIT_MODE); /* use 2-line lcd + 8-bit Data Mode + 5*7 dot display Mode */
	#endif

	LCD_sendCommand(CURSOR_OFF); /* cursor off */
     892:	8c e0       	ldi	r24, 0x0C	; 12
     894:	0e 94 68 03 	call	0x6d0	; 0x6d0 <LCD_sendCommand>
	LCD_sendCommand(CLEAR_COMMAND); /* clear LCD at the beginning */
     898:	81 e0       	ldi	r24, 0x01	; 1
     89a:	0e 94 68 03 	call	0x6d0	; 0x6d0 <LCD_sendCommand>
     89e:	08 95       	ret

000008a0 <LCD_displayCharacter>:
	Timer_Delay(0.000001, timer0_config1);
#endif
}

void LCD_displayCharacter(uint8_t data)
{
     8a0:	0f 93       	push	r16
     8a2:	1f 93       	push	r17
     8a4:	cf 93       	push	r28
     8a6:	c8 2f       	mov	r28, r24
	//SET_BIT(LCD_CTRL_PORT,RS); /* Data Mode RS=1 */
	DIO_SetPinValue(LCD_CTRL_PORT, RS, HIGH);
     8a8:	41 e0       	ldi	r20, 0x01	; 1
     8aa:	61 e0       	ldi	r22, 0x01	; 1
     8ac:	83 e0       	ldi	r24, 0x03	; 3
     8ae:	0e 94 a8 06 	call	0xd50	; 0xd50 <DIO_SetPinValue>
	
	//CLEAR_BIT(LCD_CTRL_PORT,RW); /* write data to LCD so RW=0 */
	DIO_SetPinValue(LCD_CTRL_PORT, RW, LOW);
     8b2:	40 e0       	ldi	r20, 0x00	; 0
     8b4:	62 e0       	ldi	r22, 0x02	; 2
     8b6:	83 e0       	ldi	r24, 0x03	; 3
     8b8:	0e 94 a8 06 	call	0xd50	; 0xd50 <DIO_SetPinValue>
	
	//delay_us(1); /* delay for processing Tas = 50ns */
	Timer_Delay(0.000001, timer0_config1);
     8bc:	00 91 65 00 	lds	r16, 0x0065	; 0x800065 <timer0_config1>
     8c0:	10 91 66 00 	lds	r17, 0x0066	; 0x800066 <timer0_config1+0x1>
     8c4:	20 91 67 00 	lds	r18, 0x0067	; 0x800067 <timer0_config1+0x2>
     8c8:	30 91 68 00 	lds	r19, 0x0068	; 0x800068 <timer0_config1+0x3>
     8cc:	40 91 69 00 	lds	r20, 0x0069	; 0x800069 <timer0_config1+0x4>
     8d0:	50 91 6a 00 	lds	r21, 0x006A	; 0x80006a <timer0_config1+0x5>
     8d4:	6d eb       	ldi	r22, 0xBD	; 189
     8d6:	77 e3       	ldi	r23, 0x37	; 55
     8d8:	86 e8       	ldi	r24, 0x86	; 134
     8da:	95 e3       	ldi	r25, 0x35	; 53
     8dc:	0e 94 18 09 	call	0x1230	; 0x1230 <Timer_Delay>
	
	//SET_BIT(LCD_CTRL_PORT,E); /* Enable LCD E=1 */
    DIO_SetPinValue(LCD_CTRL_PORT, E, HIGH);
     8e0:	41 e0       	ldi	r20, 0x01	; 1
     8e2:	63 e0       	ldi	r22, 0x03	; 3
     8e4:	83 e0       	ldi	r24, 0x03	; 3
     8e6:	0e 94 a8 06 	call	0xd50	; 0xd50 <DIO_SetPinValue>
	
	//delay_us(1); /* delay for processing Tpw - Tdws = 190ns */
	Timer_Delay(0.000001, timer0_config1);
     8ea:	00 91 65 00 	lds	r16, 0x0065	; 0x800065 <timer0_config1>
     8ee:	10 91 66 00 	lds	r17, 0x0066	; 0x800066 <timer0_config1+0x1>
     8f2:	20 91 67 00 	lds	r18, 0x0067	; 0x800067 <timer0_config1+0x2>
     8f6:	30 91 68 00 	lds	r19, 0x0068	; 0x800068 <timer0_config1+0x3>
     8fa:	40 91 69 00 	lds	r20, 0x0069	; 0x800069 <timer0_config1+0x4>
     8fe:	50 91 6a 00 	lds	r21, 0x006A	; 0x80006a <timer0_config1+0x5>
     902:	6d eb       	ldi	r22, 0xBD	; 189
     904:	77 e3       	ldi	r23, 0x37	; 55
     906:	86 e8       	ldi	r24, 0x86	; 134
     908:	95 e3       	ldi	r25, 0x35	; 53
     90a:	0e 94 18 09 	call	0x1230	; 0x1230 <Timer_Delay>
#if (DATA_BITS_MODE == 4)
	/* out the highest 4 bits of the required data to the data bus D4 --> D7 */
#ifdef UPPER_PORT_PINS
	//LCD_DATA_PORT = (LCD_DATA_PORT & 0x0F) | (data & 0xF0);
	DIO_SetUpperHalfPortValue(LCD_DATA_PORT, (data & 0xF0));
     90e:	6c 2f       	mov	r22, r28
     910:	60 7f       	andi	r22, 0xF0	; 240
     912:	83 e0       	ldi	r24, 0x03	; 3
     914:	0e 94 2d 07 	call	0xe5a	; 0xe5a <DIO_SetUpperHalfPortValue>
//	LCD_DATA_PORT = (LCD_DATA_PORT & 0xF0) | ((data & 0xF0) >> 4);
	DIO_SetLowerHalfPortValue(LCD_DATA_PORT, (data & 0xF0)>>4);
#endif

	//delay_us(1); /* delay for processing Tdsw = 100ns */
	Timer_Delay(0.000001, timer0_config1);
     918:	00 91 65 00 	lds	r16, 0x0065	; 0x800065 <timer0_config1>
     91c:	10 91 66 00 	lds	r17, 0x0066	; 0x800066 <timer0_config1+0x1>
     920:	20 91 67 00 	lds	r18, 0x0067	; 0x800067 <timer0_config1+0x2>
     924:	30 91 68 00 	lds	r19, 0x0068	; 0x800068 <timer0_config1+0x3>
     928:	40 91 69 00 	lds	r20, 0x0069	; 0x800069 <timer0_config1+0x4>
     92c:	50 91 6a 00 	lds	r21, 0x006A	; 0x80006a <timer0_config1+0x5>
     930:	6d eb       	ldi	r22, 0xBD	; 189
     932:	77 e3       	ldi	r23, 0x37	; 55
     934:	86 e8       	ldi	r24, 0x86	; 134
     936:	95 e3       	ldi	r25, 0x35	; 53
     938:	0e 94 18 09 	call	0x1230	; 0x1230 <Timer_Delay>
	
	//CLEAR_BIT(LCD_CTRL_PORT,E); /* disable LCD E=0 */
	DIO_SetPinValue(LCD_CTRL_PORT, E, LOW);
     93c:	40 e0       	ldi	r20, 0x00	; 0
     93e:	63 e0       	ldi	r22, 0x03	; 3
     940:	83 e0       	ldi	r24, 0x03	; 3
     942:	0e 94 a8 06 	call	0xd50	; 0xd50 <DIO_SetPinValue>
	
	//delay_us(1); /* delay for processing Th = 13ns */
	Timer_Delay(0.000001, timer0_config1);
     946:	00 91 65 00 	lds	r16, 0x0065	; 0x800065 <timer0_config1>
     94a:	10 91 66 00 	lds	r17, 0x0066	; 0x800066 <timer0_config1+0x1>
     94e:	20 91 67 00 	lds	r18, 0x0067	; 0x800067 <timer0_config1+0x2>
     952:	30 91 68 00 	lds	r19, 0x0068	; 0x800068 <timer0_config1+0x3>
     956:	40 91 69 00 	lds	r20, 0x0069	; 0x800069 <timer0_config1+0x4>
     95a:	50 91 6a 00 	lds	r21, 0x006A	; 0x80006a <timer0_config1+0x5>
     95e:	6d eb       	ldi	r22, 0xBD	; 189
     960:	77 e3       	ldi	r23, 0x37	; 55
     962:	86 e8       	ldi	r24, 0x86	; 134
     964:	95 e3       	ldi	r25, 0x35	; 53
     966:	0e 94 18 09 	call	0x1230	; 0x1230 <Timer_Delay>
	
//	SET_BIT(LCD_CTRL_PORT,E); /* Enable LCD E=1 */
	DIO_SetPinValue(LCD_CTRL_PORT, E, HIGH);
     96a:	41 e0       	ldi	r20, 0x01	; 1
     96c:	63 e0       	ldi	r22, 0x03	; 3
     96e:	83 e0       	ldi	r24, 0x03	; 3
     970:	0e 94 a8 06 	call	0xd50	; 0xd50 <DIO_SetPinValue>
	
	//delay_us(1); /* delay for processing Tpw - Tdws = 190ns */
	Timer_Delay(0.000001, timer0_config1);
     974:	00 91 65 00 	lds	r16, 0x0065	; 0x800065 <timer0_config1>
     978:	10 91 66 00 	lds	r17, 0x0066	; 0x800066 <timer0_config1+0x1>
     97c:	20 91 67 00 	lds	r18, 0x0067	; 0x800067 <timer0_config1+0x2>
     980:	30 91 68 00 	lds	r19, 0x0068	; 0x800068 <timer0_config1+0x3>
     984:	40 91 69 00 	lds	r20, 0x0069	; 0x800069 <timer0_config1+0x4>
     988:	50 91 6a 00 	lds	r21, 0x006A	; 0x80006a <timer0_config1+0x5>
     98c:	6d eb       	ldi	r22, 0xBD	; 189
     98e:	77 e3       	ldi	r23, 0x37	; 55
     990:	86 e8       	ldi	r24, 0x86	; 134
     992:	95 e3       	ldi	r25, 0x35	; 53
     994:	0e 94 18 09 	call	0x1230	; 0x1230 <Timer_Delay>

	/* out the lowest 4 bits of the required data to the data bus D4 --> D7 */
#ifdef UPPER_PORT_PINS
	//LCD_DATA_PORT = (LCD_DATA_PORT & 0x0F) | ((data & 0x0F) << 4);
	DIO_SetUpperHalfPortValue(LCD_DATA_PORT, ((data & 0x0F) << 4));
     998:	80 e1       	ldi	r24, 0x10	; 16
     99a:	c8 9f       	mul	r28, r24
     99c:	b0 01       	movw	r22, r0
     99e:	11 24       	eor	r1, r1
     9a0:	83 e0       	ldi	r24, 0x03	; 3
     9a2:	0e 94 2d 07 	call	0xe5a	; 0xe5a <DIO_SetUpperHalfPortValue>
	//LCD_DATA_PORT = (LCD_DATA_PORT & 0xF0) | (data & 0x0F);
	DIO_SetLowerHalfPortValue(LCD_DATA_PORT, (data & 0x0F));
#endif

	//delay_us(1); /* delay for processing Tdsw = 100ns */
	Timer_Delay(0.000001, timer0_config1);
     9a6:	00 91 65 00 	lds	r16, 0x0065	; 0x800065 <timer0_config1>
     9aa:	10 91 66 00 	lds	r17, 0x0066	; 0x800066 <timer0_config1+0x1>
     9ae:	20 91 67 00 	lds	r18, 0x0067	; 0x800067 <timer0_config1+0x2>
     9b2:	30 91 68 00 	lds	r19, 0x0068	; 0x800068 <timer0_config1+0x3>
     9b6:	40 91 69 00 	lds	r20, 0x0069	; 0x800069 <timer0_config1+0x4>
     9ba:	50 91 6a 00 	lds	r21, 0x006A	; 0x80006a <timer0_config1+0x5>
     9be:	6d eb       	ldi	r22, 0xBD	; 189
     9c0:	77 e3       	ldi	r23, 0x37	; 55
     9c2:	86 e8       	ldi	r24, 0x86	; 134
     9c4:	95 e3       	ldi	r25, 0x35	; 53
     9c6:	0e 94 18 09 	call	0x1230	; 0x1230 <Timer_Delay>
	
	//CLEAR_BIT(LCD_CTRL_PORT,E); /* disable LCD E=0 */
	DIO_SetPinValue(LCD_CTRL_PORT, E, LOW);
     9ca:	40 e0       	ldi	r20, 0x00	; 0
     9cc:	63 e0       	ldi	r22, 0x03	; 3
     9ce:	83 e0       	ldi	r24, 0x03	; 3
     9d0:	0e 94 a8 06 	call	0xd50	; 0xd50 <DIO_SetPinValue>
	
	//delay_us(1); /* delay for processing Th = 13ns */
	Timer_Delay(0.000001, timer0_config1);
     9d4:	00 91 65 00 	lds	r16, 0x0065	; 0x800065 <timer0_config1>
     9d8:	10 91 66 00 	lds	r17, 0x0066	; 0x800066 <timer0_config1+0x1>
     9dc:	20 91 67 00 	lds	r18, 0x0067	; 0x800067 <timer0_config1+0x2>
     9e0:	30 91 68 00 	lds	r19, 0x0068	; 0x800068 <timer0_config1+0x3>
     9e4:	40 91 69 00 	lds	r20, 0x0069	; 0x800069 <timer0_config1+0x4>
     9e8:	50 91 6a 00 	lds	r21, 0x006A	; 0x80006a <timer0_config1+0x5>
     9ec:	6d eb       	ldi	r22, 0xBD	; 189
     9ee:	77 e3       	ldi	r23, 0x37	; 55
     9f0:	86 e8       	ldi	r24, 0x86	; 134
     9f2:	95 e3       	ldi	r25, 0x35	; 53
     9f4:	0e 94 18 09 	call	0x1230	; 0x1230 <Timer_Delay>
	DIO_SetPinValue(LCD_CTRL_PORT, E, LOW);
	
	//delay_us(1); /* delay for processing Th = 13ns */
	Timer_Delay(0.000001, timer0_config1);
#endif
}
     9f8:	cf 91       	pop	r28
     9fa:	1f 91       	pop	r17
     9fc:	0f 91       	pop	r16
     9fe:	08 95       	ret

00000a00 <LCD_displayString>:

void LCD_displayString(char *Str)
{
     a00:	0f 93       	push	r16
     a02:	1f 93       	push	r17
     a04:	cf 93       	push	r28
     a06:	8c 01       	movw	r16, r24
	uint8_t i = 0;
     a08:	c0 e0       	ldi	r28, 0x00	; 0
	while(Str[i] != '\0')
     a0a:	03 c0       	rjmp	.+6      	; 0xa12 <LCD_displayString+0x12>
	{
		LCD_displayCharacter(Str[i]);
     a0c:	0e 94 50 04 	call	0x8a0	; 0x8a0 <LCD_displayCharacter>
		i++;
     a10:	cf 5f       	subi	r28, 0xFF	; 255
}

void LCD_displayString(char *Str)
{
	uint8_t i = 0;
	while(Str[i] != '\0')
     a12:	f8 01       	movw	r30, r16
     a14:	ec 0f       	add	r30, r28
     a16:	f1 1d       	adc	r31, r1
     a18:	80 81       	ld	r24, Z
     a1a:	81 11       	cpse	r24, r1
     a1c:	f7 cf       	rjmp	.-18     	; 0xa0c <LCD_displayString+0xc>
	{
		LCD_displayCharacter(*Str);
		Str++;
	}
	*********************************************************/
}
     a1e:	cf 91       	pop	r28
     a20:	1f 91       	pop	r17
     a22:	0f 91       	pop	r16
     a24:	08 95       	ret

00000a26 <LCD_goToRowColumn>:
void LCD_goToRowColumn(uint8_t row,uint8_t col)
	{
	uint8_t Address = 0;

	/* first of all calculate the required address */
	switch(row)
     a26:	81 30       	cpi	r24, 0x01	; 1
     a28:	39 f0       	breq	.+14     	; 0xa38 <LCD_goToRowColumn+0x12>
     a2a:	58 f0       	brcs	.+22     	; 0xa42 <LCD_goToRowColumn+0x1c>
     a2c:	82 30       	cpi	r24, 0x02	; 2
     a2e:	31 f0       	breq	.+12     	; 0xa3c <LCD_goToRowColumn+0x16>
     a30:	83 30       	cpi	r24, 0x03	; 3
     a32:	31 f0       	breq	.+12     	; 0xa40 <LCD_goToRowColumn+0x1a>
	*********************************************************/
}

void LCD_goToRowColumn(uint8_t row,uint8_t col)
	{
	uint8_t Address = 0;
     a34:	60 e0       	ldi	r22, 0x00	; 0
     a36:	05 c0       	rjmp	.+10     	; 0xa42 <LCD_goToRowColumn+0x1c>
	{
		case 0:
				Address=col;
				break;
		case 1:
				Address=col+0x40;
     a38:	60 5c       	subi	r22, 0xC0	; 192
				break;
     a3a:	03 c0       	rjmp	.+6      	; 0xa42 <LCD_goToRowColumn+0x1c>
		case 2:
				Address=col+0x10;
     a3c:	60 5f       	subi	r22, 0xF0	; 240
				break;
     a3e:	01 c0       	rjmp	.+2      	; 0xa42 <LCD_goToRowColumn+0x1c>
		case 3:
				Address=col+0x50;
     a40:	60 5b       	subi	r22, 0xB0	; 176
				break;
			
	}
	/* to write to a specific address in the LCD
	 * we need to apply the corresponding command 0b10000000+Address */
	LCD_sendCommand(Address | SET_CURSOR_LOCATION);
     a42:	86 2f       	mov	r24, r22
     a44:	80 68       	ori	r24, 0x80	; 128
     a46:	0e 94 68 03 	call	0x6d0	; 0x6d0 <LCD_sendCommand>
     a4a:	08 95       	ret

00000a4c <LCD_displayStringRowColumn>:
}

void LCD_displayStringRowColumn(uint8_t row,uint8_t col,char *Str)
{
     a4c:	cf 93       	push	r28
     a4e:	df 93       	push	r29
     a50:	ea 01       	movw	r28, r20
	LCD_goToRowColumn(row,col); /* go to to the required LCD position */
     a52:	0e 94 13 05 	call	0xa26	; 0xa26 <LCD_goToRowColumn>
	LCD_displayString(Str); /* display the string */
     a56:	ce 01       	movw	r24, r28
     a58:	0e 94 00 05 	call	0xa00	; 0xa00 <LCD_displayString>
}
     a5c:	df 91       	pop	r29
     a5e:	cf 91       	pop	r28
     a60:	08 95       	ret

00000a62 <LCD_clearScreen>:
   LCD_displayString(buff);
}

void LCD_clearScreen(void)
{
	LCD_sendCommand(CLEAR_COMMAND); //clear display
     a62:	81 e0       	ldi	r24, 0x01	; 1
     a64:	0e 94 68 03 	call	0x6d0	; 0x6d0 <LCD_sendCommand>
     a68:	08 95       	ret

00000a6a <Lm35_init>:
 */ 

#include "LM35.h"
void Lm35_init(EN_SensorID_t SensorID)
{
	ADC_Init(AutoTrig_FreeRun, ADC_Div_128, ADC_Polling, _2_56V_VoltREF); // initialize ADC
     a6a:	20 ec       	ldi	r18, 0xC0	; 192
     a6c:	40 e0       	ldi	r20, 0x00	; 0
     a6e:	67 e0       	ldi	r22, 0x07	; 7
     a70:	80 e2       	ldi	r24, 0x20	; 32
     a72:	90 e0       	ldi	r25, 0x00	; 0
     a74:	0e 94 b9 05 	call	0xb72	; 0xb72 <ADC_Init>
     a78:	08 95       	ret

00000a7a <Lm35_GetTemp>:
}
uint8_t Lm35_GetTemp(EN_SensorID_t SensorID)
{
	// get the converted reading from ADC data register
	uint8_t digital_reading = ADC_GetReading(SensorID);
     a7a:	0e 94 cd 05 	call	0xb9a	; 0xb9a <ADC_GetReading>
	// convert digital value to temprature in c
	float32_t temprature = (digital_reading * 100 * 2.56)/(1024);
     a7e:	24 e6       	ldi	r18, 0x64	; 100
     a80:	82 9f       	mul	r24, r18
     a82:	c0 01       	movw	r24, r0
     a84:	11 24       	eor	r1, r1
     a86:	bc 01       	movw	r22, r24
     a88:	99 0f       	add	r25, r25
     a8a:	88 0b       	sbc	r24, r24
     a8c:	99 0b       	sbc	r25, r25
     a8e:	0e 94 64 0c 	call	0x18c8	; 0x18c8 <__floatsisf>
     a92:	2a e0       	ldi	r18, 0x0A	; 10
     a94:	37 ed       	ldi	r19, 0xD7	; 215
     a96:	43 e2       	ldi	r20, 0x23	; 35
     a98:	50 e4       	ldi	r21, 0x40	; 64
     a9a:	0e 94 19 0d 	call	0x1a32	; 0x1a32 <__mulsf3>
     a9e:	20 e0       	ldi	r18, 0x00	; 0
     aa0:	30 e0       	ldi	r19, 0x00	; 0
     aa2:	40 e8       	ldi	r20, 0x80	; 128
     aa4:	5a e3       	ldi	r21, 0x3A	; 58
     aa6:	0e 94 19 0d 	call	0x1a32	; 0x1a32 <__mulsf3>
	return temprature;
     aaa:	0e 94 33 0c 	call	0x1866	; 0x1866 <__fixunssfsi>
     aae:	86 2f       	mov	r24, r22
}
     ab0:	08 95       	ret

00000ab2 <Motor_init>:
     ab2:	1f 93       	push	r17
     ab4:	cf 93       	push	r28
     ab6:	df 93       	push	r29
     ab8:	00 d0       	rcall	.+0      	; 0xaba <Motor_init+0x8>
     aba:	00 d0       	rcall	.+0      	; 0xabc <Motor_init+0xa>
     abc:	1f 92       	push	r1
     abe:	cd b7       	in	r28, 0x3d	; 61
     ac0:	de b7       	in	r29, 0x3e	; 62
     ac2:	49 83       	std	Y+1, r20	; 0x01
     ac4:	5a 83       	std	Y+2, r21	; 0x02
     ac6:	6b 83       	std	Y+3, r22	; 0x03
     ac8:	7c 83       	std	Y+4, r23	; 0x04
     aca:	18 2f       	mov	r17, r24
     acc:	81 11       	cpse	r24, r1
     ace:	06 c0       	rjmp	.+12     	; 0xadc <Motor_init+0x2a>
     ad0:	40 e0       	ldi	r20, 0x00	; 0
     ad2:	50 e0       	ldi	r21, 0x00	; 0
     ad4:	60 e0       	ldi	r22, 0x00	; 0
     ad6:	80 e0       	ldi	r24, 0x00	; 0
     ad8:	0e 94 77 07 	call	0xeee	; 0xeee <pwm_init>
     adc:	11 30       	cpi	r17, 0x01	; 1
     ade:	31 f4       	brne	.+12     	; 0xaec <Motor_init+0x3a>
     ae0:	40 e0       	ldi	r20, 0x00	; 0
     ae2:	50 e0       	ldi	r21, 0x00	; 0
     ae4:	60 e0       	ldi	r22, 0x00	; 0
     ae6:	81 e0       	ldi	r24, 0x01	; 1
     ae8:	0e 94 77 07 	call	0xeee	; 0xeee <pwm_init>
     aec:	6a 81       	ldd	r22, Y+2	; 0x02
     aee:	68 30       	cpi	r22, 0x08	; 8
     af0:	60 f4       	brcc	.+24     	; 0xb0a <Motor_init+0x58>
     af2:	1c 81       	ldd	r17, Y+4	; 0x04
     af4:	18 30       	cpi	r17, 0x08	; 8
     af6:	48 f4       	brcc	.+18     	; 0xb0a <Motor_init+0x58>
     af8:	41 e0       	ldi	r20, 0x01	; 1
     afa:	89 81       	ldd	r24, Y+1	; 0x01
     afc:	0e 94 db 05 	call	0xbb6	; 0xbb6 <DIO_SetPinDirection>
     b00:	41 e0       	ldi	r20, 0x01	; 1
     b02:	61 2f       	mov	r22, r17
     b04:	8b 81       	ldd	r24, Y+3	; 0x03
     b06:	0e 94 db 05 	call	0xbb6	; 0xbb6 <DIO_SetPinDirection>
     b0a:	0f 90       	pop	r0
     b0c:	0f 90       	pop	r0
     b0e:	0f 90       	pop	r0
     b10:	0f 90       	pop	r0
     b12:	0f 90       	pop	r0
     b14:	df 91       	pop	r29
     b16:	cf 91       	pop	r28
     b18:	1f 91       	pop	r17
     b1a:	08 95       	ret

00000b1c <Motor_moveForward>:
     b1c:	1f 93       	push	r17
     b1e:	cf 93       	push	r28
     b20:	df 93       	push	r29
     b22:	00 d0       	rcall	.+0      	; 0xb24 <Motor_moveForward+0x8>
     b24:	00 d0       	rcall	.+0      	; 0xb26 <Motor_moveForward+0xa>
     b26:	1f 92       	push	r1
     b28:	cd b7       	in	r28, 0x3d	; 61
     b2a:	de b7       	in	r29, 0x3e	; 62
     b2c:	94 2f       	mov	r25, r20
     b2e:	6b 83       	std	Y+3, r22	; 0x03
     b30:	7c 83       	std	Y+4, r23	; 0x04
     b32:	8d 83       	std	Y+5, r24	; 0x05
     b34:	12 2f       	mov	r17, r18
     b36:	40 e0       	ldi	r20, 0x00	; 0
     b38:	65 2f       	mov	r22, r21
     b3a:	89 2f       	mov	r24, r25
     b3c:	0e 94 a8 06 	call	0xd50	; 0xd50 <DIO_SetPinValue>
     b40:	41 e0       	ldi	r20, 0x01	; 1
     b42:	6c 81       	ldd	r22, Y+4	; 0x04
     b44:	8b 81       	ldd	r24, Y+3	; 0x03
     b46:	0e 94 a8 06 	call	0xd50	; 0xd50 <DIO_SetPinValue>
     b4a:	15 36       	cpi	r17, 0x65	; 101
     b4c:	20 f4       	brcc	.+8      	; 0xb56 <Motor_moveForward+0x3a>
     b4e:	61 2f       	mov	r22, r17
     b50:	8d 81       	ldd	r24, Y+5	; 0x05
     b52:	0e 94 27 08 	call	0x104e	; 0x104e <pwm_SetSpeed>
     b56:	0f 90       	pop	r0
     b58:	0f 90       	pop	r0
     b5a:	0f 90       	pop	r0
     b5c:	0f 90       	pop	r0
     b5e:	0f 90       	pop	r0
     b60:	df 91       	pop	r29
     b62:	cf 91       	pop	r28
     b64:	1f 91       	pop	r17
     b66:	08 95       	ret

00000b68 <main>:


int main(void)
{
	
	App_Init();
     b68:	0e 94 49 00 	call	0x92	; 0x92 <App_Init>

    while (1) 
    {
		app();
     b6c:	0e 94 21 01 	call	0x242	; 0x242 <app>
     b70:	fd cf       	rjmp	.-6      	; 0xb6c <main+0x4>

00000b72 <ADC_Init>:
     b72:	17 b8       	out	0x07, r1	; 7
     b74:	16 b8       	out	0x06, r1	; 6
     b76:	36 b1       	in	r19, 0x06	; 6
     b78:	30 68       	ori	r19, 0x80	; 128
     b7a:	36 b9       	out	0x06, r19	; 6
     b7c:	37 b1       	in	r19, 0x07	; 7
     b7e:	23 2b       	or	r18, r19
     b80:	27 b9       	out	0x07, r18	; 7
     b82:	26 b1       	in	r18, 0x06	; 6
     b84:	86 2b       	or	r24, r22
     b86:	48 2b       	or	r20, r24
     b88:	24 2b       	or	r18, r20
     b8a:	26 b9       	out	0x06, r18	; 6
     b8c:	80 b7       	in	r24, 0x30	; 48
     b8e:	8f 71       	andi	r24, 0x1F	; 31
     b90:	80 bf       	out	0x30, r24	; 48
     b92:	80 b7       	in	r24, 0x30	; 48
     b94:	98 2b       	or	r25, r24
     b96:	90 bf       	out	0x30, r25	; 48
     b98:	08 95       	ret

00000b9a <ADC_GetReading>:
     b9a:	97 b1       	in	r25, 0x07	; 7
     b9c:	89 2b       	or	r24, r25
     b9e:	87 b9       	out	0x07, r24	; 7
     ba0:	86 b1       	in	r24, 0x06	; 6
     ba2:	80 64       	ori	r24, 0x40	; 64
     ba4:	86 b9       	out	0x06, r24	; 6
     ba6:	34 9b       	sbis	0x06, 4	; 6
     ba8:	fe cf       	rjmp	.-4      	; 0xba6 <ADC_GetReading+0xc>
     baa:	86 b1       	in	r24, 0x06	; 6
     bac:	80 61       	ori	r24, 0x10	; 16
     bae:	86 b9       	out	0x06, r24	; 6
     bb0:	84 b1       	in	r24, 0x04	; 4
     bb2:	95 b1       	in	r25, 0x05	; 5
     bb4:	08 95       	ret

00000bb6 <DIO_SetPinDirection>:
     bb6:	81 30       	cpi	r24, 0x01	; 1
     bb8:	c9 f1       	breq	.+114    	; 0xc2c <DIO_SetPinDirection+0x76>
     bba:	38 f0       	brcs	.+14     	; 0xbca <DIO_SetPinDirection+0x14>
     bbc:	82 30       	cpi	r24, 0x02	; 2
     bbe:	09 f4       	brne	.+2      	; 0xbc2 <DIO_SetPinDirection+0xc>
     bc0:	66 c0       	rjmp	.+204    	; 0xc8e <DIO_SetPinDirection+0xd8>
     bc2:	83 30       	cpi	r24, 0x03	; 3
     bc4:	09 f4       	brne	.+2      	; 0xbc8 <DIO_SetPinDirection+0x12>
     bc6:	94 c0       	rjmp	.+296    	; 0xcf0 <DIO_SetPinDirection+0x13a>
     bc8:	08 95       	ret
     bca:	41 30       	cpi	r20, 0x01	; 1
     bcc:	59 f4       	brne	.+22     	; 0xbe4 <DIO_SetPinDirection+0x2e>
     bce:	2a b3       	in	r18, 0x1a	; 26
     bd0:	81 e0       	ldi	r24, 0x01	; 1
     bd2:	90 e0       	ldi	r25, 0x00	; 0
     bd4:	02 c0       	rjmp	.+4      	; 0xbda <DIO_SetPinDirection+0x24>
     bd6:	88 0f       	add	r24, r24
     bd8:	99 1f       	adc	r25, r25
     bda:	6a 95       	dec	r22
     bdc:	e2 f7       	brpl	.-8      	; 0xbd6 <DIO_SetPinDirection+0x20>
     bde:	82 2b       	or	r24, r18
     be0:	8a bb       	out	0x1a, r24	; 26
     be2:	08 95       	ret
     be4:	41 11       	cpse	r20, r1
     be6:	0c c0       	rjmp	.+24     	; 0xc00 <DIO_SetPinDirection+0x4a>
     be8:	2a b3       	in	r18, 0x1a	; 26
     bea:	81 e0       	ldi	r24, 0x01	; 1
     bec:	90 e0       	ldi	r25, 0x00	; 0
     bee:	02 c0       	rjmp	.+4      	; 0xbf4 <DIO_SetPinDirection+0x3e>
     bf0:	88 0f       	add	r24, r24
     bf2:	99 1f       	adc	r25, r25
     bf4:	6a 95       	dec	r22
     bf6:	e2 f7       	brpl	.-8      	; 0xbf0 <DIO_SetPinDirection+0x3a>
     bf8:	80 95       	com	r24
     bfa:	82 23       	and	r24, r18
     bfc:	8a bb       	out	0x1a, r24	; 26
     bfe:	08 95       	ret
     c00:	42 30       	cpi	r20, 0x02	; 2
     c02:	09 f0       	breq	.+2      	; 0xc06 <DIO_SetPinDirection+0x50>
     c04:	a4 c0       	rjmp	.+328    	; 0xd4e <DIO_SetPinDirection+0x198>
     c06:	2a b3       	in	r18, 0x1a	; 26
     c08:	81 e0       	ldi	r24, 0x01	; 1
     c0a:	90 e0       	ldi	r25, 0x00	; 0
     c0c:	02 c0       	rjmp	.+4      	; 0xc12 <DIO_SetPinDirection+0x5c>
     c0e:	88 0f       	add	r24, r24
     c10:	99 1f       	adc	r25, r25
     c12:	6a 95       	dec	r22
     c14:	e2 f7       	brpl	.-8      	; 0xc0e <DIO_SetPinDirection+0x58>
     c16:	98 2f       	mov	r25, r24
     c18:	90 95       	com	r25
     c1a:	92 23       	and	r25, r18
     c1c:	9a bb       	out	0x1a, r25	; 26
     c1e:	90 b7       	in	r25, 0x30	; 48
     c20:	9b 7f       	andi	r25, 0xFB	; 251
     c22:	90 bf       	out	0x30, r25	; 48
     c24:	9b b3       	in	r25, 0x1b	; 27
     c26:	89 2b       	or	r24, r25
     c28:	8b bb       	out	0x1b, r24	; 27
     c2a:	08 95       	ret
     c2c:	41 30       	cpi	r20, 0x01	; 1
     c2e:	59 f4       	brne	.+22     	; 0xc46 <DIO_SetPinDirection+0x90>
     c30:	27 b3       	in	r18, 0x17	; 23
     c32:	81 e0       	ldi	r24, 0x01	; 1
     c34:	90 e0       	ldi	r25, 0x00	; 0
     c36:	02 c0       	rjmp	.+4      	; 0xc3c <DIO_SetPinDirection+0x86>
     c38:	88 0f       	add	r24, r24
     c3a:	99 1f       	adc	r25, r25
     c3c:	6a 95       	dec	r22
     c3e:	e2 f7       	brpl	.-8      	; 0xc38 <DIO_SetPinDirection+0x82>
     c40:	82 2b       	or	r24, r18
     c42:	87 bb       	out	0x17, r24	; 23
     c44:	08 95       	ret
     c46:	41 11       	cpse	r20, r1
     c48:	0c c0       	rjmp	.+24     	; 0xc62 <DIO_SetPinDirection+0xac>
     c4a:	27 b3       	in	r18, 0x17	; 23
     c4c:	81 e0       	ldi	r24, 0x01	; 1
     c4e:	90 e0       	ldi	r25, 0x00	; 0
     c50:	02 c0       	rjmp	.+4      	; 0xc56 <DIO_SetPinDirection+0xa0>
     c52:	88 0f       	add	r24, r24
     c54:	99 1f       	adc	r25, r25
     c56:	6a 95       	dec	r22
     c58:	e2 f7       	brpl	.-8      	; 0xc52 <DIO_SetPinDirection+0x9c>
     c5a:	80 95       	com	r24
     c5c:	82 23       	and	r24, r18
     c5e:	87 bb       	out	0x17, r24	; 23
     c60:	08 95       	ret
     c62:	42 30       	cpi	r20, 0x02	; 2
     c64:	09 f0       	breq	.+2      	; 0xc68 <DIO_SetPinDirection+0xb2>
     c66:	73 c0       	rjmp	.+230    	; 0xd4e <DIO_SetPinDirection+0x198>
     c68:	27 b3       	in	r18, 0x17	; 23
     c6a:	81 e0       	ldi	r24, 0x01	; 1
     c6c:	90 e0       	ldi	r25, 0x00	; 0
     c6e:	02 c0       	rjmp	.+4      	; 0xc74 <DIO_SetPinDirection+0xbe>
     c70:	88 0f       	add	r24, r24
     c72:	99 1f       	adc	r25, r25
     c74:	6a 95       	dec	r22
     c76:	e2 f7       	brpl	.-8      	; 0xc70 <DIO_SetPinDirection+0xba>
     c78:	98 2f       	mov	r25, r24
     c7a:	90 95       	com	r25
     c7c:	92 23       	and	r25, r18
     c7e:	97 bb       	out	0x17, r25	; 23
     c80:	90 b7       	in	r25, 0x30	; 48
     c82:	9b 7f       	andi	r25, 0xFB	; 251
     c84:	90 bf       	out	0x30, r25	; 48
     c86:	98 b3       	in	r25, 0x18	; 24
     c88:	89 2b       	or	r24, r25
     c8a:	88 bb       	out	0x18, r24	; 24
     c8c:	08 95       	ret
     c8e:	41 30       	cpi	r20, 0x01	; 1
     c90:	59 f4       	brne	.+22     	; 0xca8 <DIO_SetPinDirection+0xf2>
     c92:	24 b3       	in	r18, 0x14	; 20
     c94:	81 e0       	ldi	r24, 0x01	; 1
     c96:	90 e0       	ldi	r25, 0x00	; 0
     c98:	02 c0       	rjmp	.+4      	; 0xc9e <DIO_SetPinDirection+0xe8>
     c9a:	88 0f       	add	r24, r24
     c9c:	99 1f       	adc	r25, r25
     c9e:	6a 95       	dec	r22
     ca0:	e2 f7       	brpl	.-8      	; 0xc9a <DIO_SetPinDirection+0xe4>
     ca2:	82 2b       	or	r24, r18
     ca4:	84 bb       	out	0x14, r24	; 20
     ca6:	08 95       	ret
     ca8:	41 11       	cpse	r20, r1
     caa:	0c c0       	rjmp	.+24     	; 0xcc4 <DIO_SetPinDirection+0x10e>
     cac:	24 b3       	in	r18, 0x14	; 20
     cae:	81 e0       	ldi	r24, 0x01	; 1
     cb0:	90 e0       	ldi	r25, 0x00	; 0
     cb2:	02 c0       	rjmp	.+4      	; 0xcb8 <DIO_SetPinDirection+0x102>
     cb4:	88 0f       	add	r24, r24
     cb6:	99 1f       	adc	r25, r25
     cb8:	6a 95       	dec	r22
     cba:	e2 f7       	brpl	.-8      	; 0xcb4 <DIO_SetPinDirection+0xfe>
     cbc:	80 95       	com	r24
     cbe:	82 23       	and	r24, r18
     cc0:	84 bb       	out	0x14, r24	; 20
     cc2:	08 95       	ret
     cc4:	42 30       	cpi	r20, 0x02	; 2
     cc6:	09 f0       	breq	.+2      	; 0xcca <DIO_SetPinDirection+0x114>
     cc8:	42 c0       	rjmp	.+132    	; 0xd4e <DIO_SetPinDirection+0x198>
     cca:	24 b3       	in	r18, 0x14	; 20
     ccc:	81 e0       	ldi	r24, 0x01	; 1
     cce:	90 e0       	ldi	r25, 0x00	; 0
     cd0:	02 c0       	rjmp	.+4      	; 0xcd6 <DIO_SetPinDirection+0x120>
     cd2:	88 0f       	add	r24, r24
     cd4:	99 1f       	adc	r25, r25
     cd6:	6a 95       	dec	r22
     cd8:	e2 f7       	brpl	.-8      	; 0xcd2 <DIO_SetPinDirection+0x11c>
     cda:	98 2f       	mov	r25, r24
     cdc:	90 95       	com	r25
     cde:	92 23       	and	r25, r18
     ce0:	94 bb       	out	0x14, r25	; 20
     ce2:	90 b7       	in	r25, 0x30	; 48
     ce4:	9b 7f       	andi	r25, 0xFB	; 251
     ce6:	90 bf       	out	0x30, r25	; 48
     ce8:	95 b3       	in	r25, 0x15	; 21
     cea:	89 2b       	or	r24, r25
     cec:	85 bb       	out	0x15, r24	; 21
     cee:	08 95       	ret
     cf0:	41 30       	cpi	r20, 0x01	; 1
     cf2:	59 f4       	brne	.+22     	; 0xd0a <DIO_SetPinDirection+0x154>
     cf4:	21 b3       	in	r18, 0x11	; 17
     cf6:	81 e0       	ldi	r24, 0x01	; 1
     cf8:	90 e0       	ldi	r25, 0x00	; 0
     cfa:	02 c0       	rjmp	.+4      	; 0xd00 <DIO_SetPinDirection+0x14a>
     cfc:	88 0f       	add	r24, r24
     cfe:	99 1f       	adc	r25, r25
     d00:	6a 95       	dec	r22
     d02:	e2 f7       	brpl	.-8      	; 0xcfc <DIO_SetPinDirection+0x146>
     d04:	82 2b       	or	r24, r18
     d06:	81 bb       	out	0x11, r24	; 17
     d08:	08 95       	ret
     d0a:	41 11       	cpse	r20, r1
     d0c:	0c c0       	rjmp	.+24     	; 0xd26 <DIO_SetPinDirection+0x170>
     d0e:	21 b3       	in	r18, 0x11	; 17
     d10:	81 e0       	ldi	r24, 0x01	; 1
     d12:	90 e0       	ldi	r25, 0x00	; 0
     d14:	02 c0       	rjmp	.+4      	; 0xd1a <DIO_SetPinDirection+0x164>
     d16:	88 0f       	add	r24, r24
     d18:	99 1f       	adc	r25, r25
     d1a:	6a 95       	dec	r22
     d1c:	e2 f7       	brpl	.-8      	; 0xd16 <DIO_SetPinDirection+0x160>
     d1e:	80 95       	com	r24
     d20:	82 23       	and	r24, r18
     d22:	81 bb       	out	0x11, r24	; 17
     d24:	08 95       	ret
     d26:	42 30       	cpi	r20, 0x02	; 2
     d28:	91 f4       	brne	.+36     	; 0xd4e <DIO_SetPinDirection+0x198>
     d2a:	21 b3       	in	r18, 0x11	; 17
     d2c:	81 e0       	ldi	r24, 0x01	; 1
     d2e:	90 e0       	ldi	r25, 0x00	; 0
     d30:	02 c0       	rjmp	.+4      	; 0xd36 <DIO_SetPinDirection+0x180>
     d32:	88 0f       	add	r24, r24
     d34:	99 1f       	adc	r25, r25
     d36:	6a 95       	dec	r22
     d38:	e2 f7       	brpl	.-8      	; 0xd32 <DIO_SetPinDirection+0x17c>
     d3a:	98 2f       	mov	r25, r24
     d3c:	90 95       	com	r25
     d3e:	92 23       	and	r25, r18
     d40:	91 bb       	out	0x11, r25	; 17
     d42:	90 b7       	in	r25, 0x30	; 48
     d44:	9b 7f       	andi	r25, 0xFB	; 251
     d46:	90 bf       	out	0x30, r25	; 48
     d48:	92 b3       	in	r25, 0x12	; 18
     d4a:	89 2b       	or	r24, r25
     d4c:	82 bb       	out	0x12, r24	; 18
     d4e:	08 95       	ret

00000d50 <DIO_SetPinValue>:
     d50:	81 30       	cpi	r24, 0x01	; 1
     d52:	11 f1       	breq	.+68     	; 0xd98 <DIO_SetPinValue+0x48>
     d54:	30 f0       	brcs	.+12     	; 0xd62 <DIO_SetPinValue+0x12>
     d56:	82 30       	cpi	r24, 0x02	; 2
     d58:	d1 f1       	breq	.+116    	; 0xdce <DIO_SetPinValue+0x7e>
     d5a:	83 30       	cpi	r24, 0x03	; 3
     d5c:	09 f4       	brne	.+2      	; 0xd60 <DIO_SetPinValue+0x10>
     d5e:	52 c0       	rjmp	.+164    	; 0xe04 <DIO_SetPinValue+0xb4>
     d60:	08 95       	ret
     d62:	41 30       	cpi	r20, 0x01	; 1
     d64:	59 f4       	brne	.+22     	; 0xd7c <DIO_SetPinValue+0x2c>
     d66:	2b b3       	in	r18, 0x1b	; 27
     d68:	81 e0       	ldi	r24, 0x01	; 1
     d6a:	90 e0       	ldi	r25, 0x00	; 0
     d6c:	02 c0       	rjmp	.+4      	; 0xd72 <DIO_SetPinValue+0x22>
     d6e:	88 0f       	add	r24, r24
     d70:	99 1f       	adc	r25, r25
     d72:	6a 95       	dec	r22
     d74:	e2 f7       	brpl	.-8      	; 0xd6e <DIO_SetPinValue+0x1e>
     d76:	82 2b       	or	r24, r18
     d78:	8b bb       	out	0x1b, r24	; 27
     d7a:	08 95       	ret
     d7c:	41 11       	cpse	r20, r1
     d7e:	5c c0       	rjmp	.+184    	; 0xe38 <DIO_SetPinValue+0xe8>
     d80:	2b b3       	in	r18, 0x1b	; 27
     d82:	81 e0       	ldi	r24, 0x01	; 1
     d84:	90 e0       	ldi	r25, 0x00	; 0
     d86:	02 c0       	rjmp	.+4      	; 0xd8c <DIO_SetPinValue+0x3c>
     d88:	88 0f       	add	r24, r24
     d8a:	99 1f       	adc	r25, r25
     d8c:	6a 95       	dec	r22
     d8e:	e2 f7       	brpl	.-8      	; 0xd88 <DIO_SetPinValue+0x38>
     d90:	80 95       	com	r24
     d92:	82 23       	and	r24, r18
     d94:	8b bb       	out	0x1b, r24	; 27
     d96:	08 95       	ret
     d98:	41 30       	cpi	r20, 0x01	; 1
     d9a:	59 f4       	brne	.+22     	; 0xdb2 <DIO_SetPinValue+0x62>
     d9c:	28 b3       	in	r18, 0x18	; 24
     d9e:	81 e0       	ldi	r24, 0x01	; 1
     da0:	90 e0       	ldi	r25, 0x00	; 0
     da2:	02 c0       	rjmp	.+4      	; 0xda8 <DIO_SetPinValue+0x58>
     da4:	88 0f       	add	r24, r24
     da6:	99 1f       	adc	r25, r25
     da8:	6a 95       	dec	r22
     daa:	e2 f7       	brpl	.-8      	; 0xda4 <DIO_SetPinValue+0x54>
     dac:	82 2b       	or	r24, r18
     dae:	88 bb       	out	0x18, r24	; 24
     db0:	08 95       	ret
     db2:	41 11       	cpse	r20, r1
     db4:	41 c0       	rjmp	.+130    	; 0xe38 <DIO_SetPinValue+0xe8>
     db6:	28 b3       	in	r18, 0x18	; 24
     db8:	81 e0       	ldi	r24, 0x01	; 1
     dba:	90 e0       	ldi	r25, 0x00	; 0
     dbc:	02 c0       	rjmp	.+4      	; 0xdc2 <DIO_SetPinValue+0x72>
     dbe:	88 0f       	add	r24, r24
     dc0:	99 1f       	adc	r25, r25
     dc2:	6a 95       	dec	r22
     dc4:	e2 f7       	brpl	.-8      	; 0xdbe <DIO_SetPinValue+0x6e>
     dc6:	80 95       	com	r24
     dc8:	82 23       	and	r24, r18
     dca:	88 bb       	out	0x18, r24	; 24
     dcc:	08 95       	ret
     dce:	41 30       	cpi	r20, 0x01	; 1
     dd0:	59 f4       	brne	.+22     	; 0xde8 <DIO_SetPinValue+0x98>
     dd2:	25 b3       	in	r18, 0x15	; 21
     dd4:	81 e0       	ldi	r24, 0x01	; 1
     dd6:	90 e0       	ldi	r25, 0x00	; 0
     dd8:	02 c0       	rjmp	.+4      	; 0xdde <DIO_SetPinValue+0x8e>
     dda:	88 0f       	add	r24, r24
     ddc:	99 1f       	adc	r25, r25
     dde:	6a 95       	dec	r22
     de0:	e2 f7       	brpl	.-8      	; 0xdda <DIO_SetPinValue+0x8a>
     de2:	82 2b       	or	r24, r18
     de4:	85 bb       	out	0x15, r24	; 21
     de6:	08 95       	ret
     de8:	41 11       	cpse	r20, r1
     dea:	26 c0       	rjmp	.+76     	; 0xe38 <DIO_SetPinValue+0xe8>
     dec:	25 b3       	in	r18, 0x15	; 21
     dee:	81 e0       	ldi	r24, 0x01	; 1
     df0:	90 e0       	ldi	r25, 0x00	; 0
     df2:	02 c0       	rjmp	.+4      	; 0xdf8 <DIO_SetPinValue+0xa8>
     df4:	88 0f       	add	r24, r24
     df6:	99 1f       	adc	r25, r25
     df8:	6a 95       	dec	r22
     dfa:	e2 f7       	brpl	.-8      	; 0xdf4 <DIO_SetPinValue+0xa4>
     dfc:	80 95       	com	r24
     dfe:	82 23       	and	r24, r18
     e00:	85 bb       	out	0x15, r24	; 21
     e02:	08 95       	ret
     e04:	41 30       	cpi	r20, 0x01	; 1
     e06:	59 f4       	brne	.+22     	; 0xe1e <DIO_SetPinValue+0xce>
     e08:	22 b3       	in	r18, 0x12	; 18
     e0a:	81 e0       	ldi	r24, 0x01	; 1
     e0c:	90 e0       	ldi	r25, 0x00	; 0
     e0e:	02 c0       	rjmp	.+4      	; 0xe14 <DIO_SetPinValue+0xc4>
     e10:	88 0f       	add	r24, r24
     e12:	99 1f       	adc	r25, r25
     e14:	6a 95       	dec	r22
     e16:	e2 f7       	brpl	.-8      	; 0xe10 <DIO_SetPinValue+0xc0>
     e18:	82 2b       	or	r24, r18
     e1a:	82 bb       	out	0x12, r24	; 18
     e1c:	08 95       	ret
     e1e:	41 11       	cpse	r20, r1
     e20:	0b c0       	rjmp	.+22     	; 0xe38 <DIO_SetPinValue+0xe8>
     e22:	22 b3       	in	r18, 0x12	; 18
     e24:	81 e0       	ldi	r24, 0x01	; 1
     e26:	90 e0       	ldi	r25, 0x00	; 0
     e28:	02 c0       	rjmp	.+4      	; 0xe2e <DIO_SetPinValue+0xde>
     e2a:	88 0f       	add	r24, r24
     e2c:	99 1f       	adc	r25, r25
     e2e:	6a 95       	dec	r22
     e30:	e2 f7       	brpl	.-8      	; 0xe2a <DIO_SetPinValue+0xda>
     e32:	80 95       	com	r24
     e34:	82 23       	and	r24, r18
     e36:	82 bb       	out	0x12, r24	; 18
     e38:	08 95       	ret

00000e3a <DIO_SetPortValue>:
     e3a:	81 30       	cpi	r24, 0x01	; 1
     e3c:	41 f0       	breq	.+16     	; 0xe4e <DIO_SetPortValue+0x14>
     e3e:	28 f0       	brcs	.+10     	; 0xe4a <DIO_SetPortValue+0x10>
     e40:	82 30       	cpi	r24, 0x02	; 2
     e42:	39 f0       	breq	.+14     	; 0xe52 <DIO_SetPortValue+0x18>
     e44:	83 30       	cpi	r24, 0x03	; 3
     e46:	39 f0       	breq	.+14     	; 0xe56 <DIO_SetPortValue+0x1c>
     e48:	08 95       	ret
     e4a:	6b bb       	out	0x1b, r22	; 27
     e4c:	08 95       	ret
     e4e:	68 bb       	out	0x18, r22	; 24
     e50:	08 95       	ret
     e52:	65 bb       	out	0x15, r22	; 21
     e54:	08 95       	ret
     e56:	62 bb       	out	0x12, r22	; 18
     e58:	08 95       	ret

00000e5a <DIO_SetUpperHalfPortValue>:
     e5a:	81 30       	cpi	r24, 0x01	; 1
     e5c:	59 f0       	breq	.+22     	; 0xe74 <DIO_SetUpperHalfPortValue+0x1a>
     e5e:	28 f0       	brcs	.+10     	; 0xe6a <DIO_SetUpperHalfPortValue+0x10>
     e60:	82 30       	cpi	r24, 0x02	; 2
     e62:	69 f0       	breq	.+26     	; 0xe7e <DIO_SetUpperHalfPortValue+0x24>
     e64:	83 30       	cpi	r24, 0x03	; 3
     e66:	81 f0       	breq	.+32     	; 0xe88 <DIO_SetUpperHalfPortValue+0x2e>
     e68:	08 95       	ret
     e6a:	8b b3       	in	r24, 0x1b	; 27
     e6c:	8f 70       	andi	r24, 0x0F	; 15
     e6e:	68 2b       	or	r22, r24
     e70:	6b bb       	out	0x1b, r22	; 27
     e72:	08 95       	ret
     e74:	88 b3       	in	r24, 0x18	; 24
     e76:	8f 70       	andi	r24, 0x0F	; 15
     e78:	68 2b       	or	r22, r24
     e7a:	68 bb       	out	0x18, r22	; 24
     e7c:	08 95       	ret
     e7e:	85 b3       	in	r24, 0x15	; 21
     e80:	8f 70       	andi	r24, 0x0F	; 15
     e82:	68 2b       	or	r22, r24
     e84:	65 bb       	out	0x15, r22	; 21
     e86:	08 95       	ret
     e88:	82 b3       	in	r24, 0x12	; 18
     e8a:	8f 70       	andi	r24, 0x0F	; 15
     e8c:	68 2b       	or	r22, r24
     e8e:	62 bb       	out	0x12, r22	; 18
     e90:	08 95       	ret

00000e92 <DIO_GetPinValue>:
     e92:	81 30       	cpi	r24, 0x01	; 1
     e94:	79 f0       	breq	.+30     	; 0xeb4 <DIO_GetPinValue+0x22>
     e96:	28 f0       	brcs	.+10     	; 0xea2 <DIO_GetPinValue+0x10>
     e98:	82 30       	cpi	r24, 0x02	; 2
     e9a:	a9 f0       	breq	.+42     	; 0xec6 <DIO_GetPinValue+0x34>
     e9c:	83 30       	cpi	r24, 0x03	; 3
     e9e:	e1 f0       	breq	.+56     	; 0xed8 <DIO_GetPinValue+0x46>
     ea0:	24 c0       	rjmp	.+72     	; 0xeea <DIO_GetPinValue+0x58>
     ea2:	89 b3       	in	r24, 0x19	; 25
     ea4:	90 e0       	ldi	r25, 0x00	; 0
     ea6:	02 c0       	rjmp	.+4      	; 0xeac <DIO_GetPinValue+0x1a>
     ea8:	95 95       	asr	r25
     eaa:	87 95       	ror	r24
     eac:	6a 95       	dec	r22
     eae:	e2 f7       	brpl	.-8      	; 0xea8 <DIO_GetPinValue+0x16>
     eb0:	81 70       	andi	r24, 0x01	; 1
     eb2:	08 95       	ret
     eb4:	86 b3       	in	r24, 0x16	; 22
     eb6:	90 e0       	ldi	r25, 0x00	; 0
     eb8:	02 c0       	rjmp	.+4      	; 0xebe <DIO_GetPinValue+0x2c>
     eba:	95 95       	asr	r25
     ebc:	87 95       	ror	r24
     ebe:	6a 95       	dec	r22
     ec0:	e2 f7       	brpl	.-8      	; 0xeba <DIO_GetPinValue+0x28>
     ec2:	81 70       	andi	r24, 0x01	; 1
     ec4:	08 95       	ret
     ec6:	83 b3       	in	r24, 0x13	; 19
     ec8:	90 e0       	ldi	r25, 0x00	; 0
     eca:	02 c0       	rjmp	.+4      	; 0xed0 <DIO_GetPinValue+0x3e>
     ecc:	95 95       	asr	r25
     ece:	87 95       	ror	r24
     ed0:	6a 95       	dec	r22
     ed2:	e2 f7       	brpl	.-8      	; 0xecc <DIO_GetPinValue+0x3a>
     ed4:	81 70       	andi	r24, 0x01	; 1
     ed6:	08 95       	ret
     ed8:	80 b3       	in	r24, 0x10	; 16
     eda:	90 e0       	ldi	r25, 0x00	; 0
     edc:	02 c0       	rjmp	.+4      	; 0xee2 <DIO_GetPinValue+0x50>
     ede:	95 95       	asr	r25
     ee0:	87 95       	ror	r24
     ee2:	6a 95       	dec	r22
     ee4:	e2 f7       	brpl	.-8      	; 0xede <DIO_GetPinValue+0x4c>
     ee6:	81 70       	andi	r24, 0x01	; 1
     ee8:	08 95       	ret
     eea:	80 e0       	ldi	r24, 0x00	; 0
     eec:	08 95       	ret

00000eee <pwm_init>:
     eee:	81 11       	cpse	r24, r1
     ef0:	56 c0       	rjmp	.+172    	; 0xf9e <pwm_init+0xb0>
     ef2:	87 b3       	in	r24, 0x17	; 23
     ef4:	88 60       	ori	r24, 0x08	; 8
     ef6:	87 bb       	out	0x17, r24	; 23
     ef8:	61 11       	cpse	r22, r1
     efa:	27 c0       	rjmp	.+78     	; 0xf4a <pwm_init+0x5c>
     efc:	40 34       	cpi	r20, 0x40	; 64
     efe:	51 05       	cpc	r21, r1
     f00:	c1 f0       	breq	.+48     	; 0xf32 <pwm_init+0x44>
     f02:	38 f4       	brcc	.+14     	; 0xf12 <pwm_init+0x24>
     f04:	41 15       	cp	r20, r1
     f06:	51 05       	cpc	r21, r1
     f08:	61 f0       	breq	.+24     	; 0xf22 <pwm_init+0x34>
     f0a:	48 30       	cpi	r20, 0x08	; 8
     f0c:	51 05       	cpc	r21, r1
     f0e:	69 f0       	breq	.+26     	; 0xf2a <pwm_init+0x3c>
     f10:	08 95       	ret
     f12:	41 15       	cp	r20, r1
     f14:	81 e0       	ldi	r24, 0x01	; 1
     f16:	58 07       	cpc	r21, r24
     f18:	81 f0       	breq	.+32     	; 0xf3a <pwm_init+0x4c>
     f1a:	41 15       	cp	r20, r1
     f1c:	54 40       	sbci	r21, 0x04	; 4
     f1e:	89 f0       	breq	.+34     	; 0xf42 <pwm_init+0x54>
     f20:	08 95       	ret
     f22:	83 b7       	in	r24, 0x33	; 51
     f24:	89 66       	ori	r24, 0x69	; 105
     f26:	83 bf       	out	0x33, r24	; 51
     f28:	08 95       	ret
     f2a:	83 b7       	in	r24, 0x33	; 51
     f2c:	8a 66       	ori	r24, 0x6A	; 106
     f2e:	83 bf       	out	0x33, r24	; 51
     f30:	08 95       	ret
     f32:	83 b7       	in	r24, 0x33	; 51
     f34:	8b 66       	ori	r24, 0x6B	; 107
     f36:	83 bf       	out	0x33, r24	; 51
     f38:	08 95       	ret
     f3a:	83 b7       	in	r24, 0x33	; 51
     f3c:	8c 66       	ori	r24, 0x6C	; 108
     f3e:	83 bf       	out	0x33, r24	; 51
     f40:	08 95       	ret
     f42:	83 b7       	in	r24, 0x33	; 51
     f44:	8d 66       	ori	r24, 0x6D	; 109
     f46:	83 bf       	out	0x33, r24	; 51
     f48:	08 95       	ret
     f4a:	61 30       	cpi	r22, 0x01	; 1
     f4c:	09 f0       	breq	.+2      	; 0xf50 <pwm_init+0x62>
     f4e:	7e c0       	rjmp	.+252    	; 0x104c <pwm_init+0x15e>
     f50:	40 34       	cpi	r20, 0x40	; 64
     f52:	51 05       	cpc	r21, r1
     f54:	c1 f0       	breq	.+48     	; 0xf86 <pwm_init+0x98>
     f56:	38 f4       	brcc	.+14     	; 0xf66 <pwm_init+0x78>
     f58:	41 15       	cp	r20, r1
     f5a:	51 05       	cpc	r21, r1
     f5c:	61 f0       	breq	.+24     	; 0xf76 <pwm_init+0x88>
     f5e:	48 30       	cpi	r20, 0x08	; 8
     f60:	51 05       	cpc	r21, r1
     f62:	69 f0       	breq	.+26     	; 0xf7e <pwm_init+0x90>
     f64:	08 95       	ret
     f66:	41 15       	cp	r20, r1
     f68:	81 e0       	ldi	r24, 0x01	; 1
     f6a:	58 07       	cpc	r21, r24
     f6c:	81 f0       	breq	.+32     	; 0xf8e <pwm_init+0xa0>
     f6e:	41 15       	cp	r20, r1
     f70:	54 40       	sbci	r21, 0x04	; 4
     f72:	89 f0       	breq	.+34     	; 0xf96 <pwm_init+0xa8>
     f74:	08 95       	ret
     f76:	83 b7       	in	r24, 0x33	; 51
     f78:	89 67       	ori	r24, 0x79	; 121
     f7a:	83 bf       	out	0x33, r24	; 51
     f7c:	08 95       	ret
     f7e:	83 b7       	in	r24, 0x33	; 51
     f80:	8a 67       	ori	r24, 0x7A	; 122
     f82:	83 bf       	out	0x33, r24	; 51
     f84:	08 95       	ret
     f86:	83 b7       	in	r24, 0x33	; 51
     f88:	8b 67       	ori	r24, 0x7B	; 123
     f8a:	83 bf       	out	0x33, r24	; 51
     f8c:	08 95       	ret
     f8e:	83 b7       	in	r24, 0x33	; 51
     f90:	8c 67       	ori	r24, 0x7C	; 124
     f92:	83 bf       	out	0x33, r24	; 51
     f94:	08 95       	ret
     f96:	83 b7       	in	r24, 0x33	; 51
     f98:	8d 67       	ori	r24, 0x7D	; 125
     f9a:	83 bf       	out	0x33, r24	; 51
     f9c:	08 95       	ret
     f9e:	81 30       	cpi	r24, 0x01	; 1
     fa0:	09 f0       	breq	.+2      	; 0xfa4 <pwm_init+0xb6>
     fa2:	54 c0       	rjmp	.+168    	; 0x104c <pwm_init+0x15e>
     fa4:	81 b3       	in	r24, 0x11	; 17
     fa6:	80 68       	ori	r24, 0x80	; 128
     fa8:	81 bb       	out	0x11, r24	; 17
     faa:	61 11       	cpse	r22, r1
     fac:	27 c0       	rjmp	.+78     	; 0xffc <pwm_init+0x10e>
     fae:	40 34       	cpi	r20, 0x40	; 64
     fb0:	51 05       	cpc	r21, r1
     fb2:	c1 f0       	breq	.+48     	; 0xfe4 <pwm_init+0xf6>
     fb4:	38 f4       	brcc	.+14     	; 0xfc4 <pwm_init+0xd6>
     fb6:	41 15       	cp	r20, r1
     fb8:	51 05       	cpc	r21, r1
     fba:	61 f0       	breq	.+24     	; 0xfd4 <pwm_init+0xe6>
     fbc:	48 30       	cpi	r20, 0x08	; 8
     fbe:	51 05       	cpc	r21, r1
     fc0:	69 f0       	breq	.+26     	; 0xfdc <pwm_init+0xee>
     fc2:	08 95       	ret
     fc4:	41 15       	cp	r20, r1
     fc6:	81 e0       	ldi	r24, 0x01	; 1
     fc8:	58 07       	cpc	r21, r24
     fca:	81 f0       	breq	.+32     	; 0xfec <pwm_init+0xfe>
     fcc:	41 15       	cp	r20, r1
     fce:	54 40       	sbci	r21, 0x04	; 4
     fd0:	89 f0       	breq	.+34     	; 0xff4 <pwm_init+0x106>
     fd2:	08 95       	ret
     fd4:	85 b5       	in	r24, 0x25	; 37
     fd6:	89 66       	ori	r24, 0x69	; 105
     fd8:	85 bd       	out	0x25, r24	; 37
     fda:	08 95       	ret
     fdc:	85 b5       	in	r24, 0x25	; 37
     fde:	8a 66       	ori	r24, 0x6A	; 106
     fe0:	85 bd       	out	0x25, r24	; 37
     fe2:	08 95       	ret
     fe4:	85 b5       	in	r24, 0x25	; 37
     fe6:	8b 66       	ori	r24, 0x6B	; 107
     fe8:	85 bd       	out	0x25, r24	; 37
     fea:	08 95       	ret
     fec:	85 b5       	in	r24, 0x25	; 37
     fee:	8c 66       	ori	r24, 0x6C	; 108
     ff0:	85 bd       	out	0x25, r24	; 37
     ff2:	08 95       	ret
     ff4:	85 b5       	in	r24, 0x25	; 37
     ff6:	8d 66       	ori	r24, 0x6D	; 109
     ff8:	85 bd       	out	0x25, r24	; 37
     ffa:	08 95       	ret
     ffc:	61 30       	cpi	r22, 0x01	; 1
     ffe:	31 f5       	brne	.+76     	; 0x104c <pwm_init+0x15e>
    1000:	40 34       	cpi	r20, 0x40	; 64
    1002:	51 05       	cpc	r21, r1
    1004:	c1 f0       	breq	.+48     	; 0x1036 <pwm_init+0x148>
    1006:	38 f4       	brcc	.+14     	; 0x1016 <pwm_init+0x128>
    1008:	41 15       	cp	r20, r1
    100a:	51 05       	cpc	r21, r1
    100c:	61 f0       	breq	.+24     	; 0x1026 <pwm_init+0x138>
    100e:	48 30       	cpi	r20, 0x08	; 8
    1010:	51 05       	cpc	r21, r1
    1012:	69 f0       	breq	.+26     	; 0x102e <pwm_init+0x140>
    1014:	08 95       	ret
    1016:	41 15       	cp	r20, r1
    1018:	81 e0       	ldi	r24, 0x01	; 1
    101a:	58 07       	cpc	r21, r24
    101c:	81 f0       	breq	.+32     	; 0x103e <pwm_init+0x150>
    101e:	41 15       	cp	r20, r1
    1020:	54 40       	sbci	r21, 0x04	; 4
    1022:	89 f0       	breq	.+34     	; 0x1046 <pwm_init+0x158>
    1024:	08 95       	ret
    1026:	85 b5       	in	r24, 0x25	; 37
    1028:	89 67       	ori	r24, 0x79	; 121
    102a:	85 bd       	out	0x25, r24	; 37
    102c:	08 95       	ret
    102e:	85 b5       	in	r24, 0x25	; 37
    1030:	8a 67       	ori	r24, 0x7A	; 122
    1032:	85 bd       	out	0x25, r24	; 37
    1034:	08 95       	ret
    1036:	85 b5       	in	r24, 0x25	; 37
    1038:	8b 67       	ori	r24, 0x7B	; 123
    103a:	85 bd       	out	0x25, r24	; 37
    103c:	08 95       	ret
    103e:	85 b5       	in	r24, 0x25	; 37
    1040:	8c 67       	ori	r24, 0x7C	; 124
    1042:	85 bd       	out	0x25, r24	; 37
    1044:	08 95       	ret
    1046:	85 b5       	in	r24, 0x25	; 37
    1048:	8d 67       	ori	r24, 0x7D	; 125
    104a:	85 bd       	out	0x25, r24	; 37
    104c:	08 95       	ret

0000104e <pwm_SetSpeed>:
    104e:	28 2f       	mov	r18, r24
    1050:	3f ef       	ldi	r19, 0xFF	; 255
    1052:	63 9f       	mul	r22, r19
    1054:	c0 01       	movw	r24, r0
    1056:	11 24       	eor	r1, r1
    1058:	64 e6       	ldi	r22, 0x64	; 100
    105a:	70 e0       	ldi	r23, 0x00	; 0
    105c:	0e 94 86 0d 	call	0x1b0c	; 0x1b0c <__divmodhi4>
    1060:	21 11       	cpse	r18, r1
    1062:	02 c0       	rjmp	.+4      	; 0x1068 <pwm_SetSpeed+0x1a>
    1064:	6c bf       	out	0x3c, r22	; 60
    1066:	08 95       	ret
    1068:	21 30       	cpi	r18, 0x01	; 1
    106a:	09 f4       	brne	.+2      	; 0x106e <pwm_SetSpeed+0x20>
    106c:	63 bd       	out	0x23, r22	; 35
    106e:	08 95       	ret

00001070 <adjustPrescalarT0>:
    1070:	81 30       	cpi	r24, 0x01	; 1
    1072:	91 05       	cpc	r25, r1
    1074:	51 f4       	brne	.+20     	; 0x108a <adjustPrescalarT0+0x1a>
    1076:	83 b7       	in	r24, 0x33	; 51
    1078:	81 60       	ori	r24, 0x01	; 1
    107a:	83 bf       	out	0x33, r24	; 51
    107c:	83 b7       	in	r24, 0x33	; 51
    107e:	8d 7f       	andi	r24, 0xFD	; 253
    1080:	83 bf       	out	0x33, r24	; 51
    1082:	83 b7       	in	r24, 0x33	; 51
    1084:	8b 7f       	andi	r24, 0xFB	; 251
    1086:	83 bf       	out	0x33, r24	; 51
    1088:	08 95       	ret
    108a:	88 30       	cpi	r24, 0x08	; 8
    108c:	91 05       	cpc	r25, r1
    108e:	51 f4       	brne	.+20     	; 0x10a4 <adjustPrescalarT0+0x34>
    1090:	83 b7       	in	r24, 0x33	; 51
    1092:	8e 7f       	andi	r24, 0xFE	; 254
    1094:	83 bf       	out	0x33, r24	; 51
    1096:	83 b7       	in	r24, 0x33	; 51
    1098:	82 60       	ori	r24, 0x02	; 2
    109a:	83 bf       	out	0x33, r24	; 51
    109c:	83 b7       	in	r24, 0x33	; 51
    109e:	8b 7f       	andi	r24, 0xFB	; 251
    10a0:	83 bf       	out	0x33, r24	; 51
    10a2:	08 95       	ret
    10a4:	80 34       	cpi	r24, 0x40	; 64
    10a6:	91 05       	cpc	r25, r1
    10a8:	51 f4       	brne	.+20     	; 0x10be <adjustPrescalarT0+0x4e>
    10aa:	83 b7       	in	r24, 0x33	; 51
    10ac:	81 60       	ori	r24, 0x01	; 1
    10ae:	83 bf       	out	0x33, r24	; 51
    10b0:	83 b7       	in	r24, 0x33	; 51
    10b2:	82 60       	ori	r24, 0x02	; 2
    10b4:	83 bf       	out	0x33, r24	; 51
    10b6:	83 b7       	in	r24, 0x33	; 51
    10b8:	8b 7f       	andi	r24, 0xFB	; 251
    10ba:	83 bf       	out	0x33, r24	; 51
    10bc:	08 95       	ret
    10be:	81 15       	cp	r24, r1
    10c0:	21 e0       	ldi	r18, 0x01	; 1
    10c2:	92 07       	cpc	r25, r18
    10c4:	51 f4       	brne	.+20     	; 0x10da <adjustPrescalarT0+0x6a>
    10c6:	83 b7       	in	r24, 0x33	; 51
    10c8:	8e 7f       	andi	r24, 0xFE	; 254
    10ca:	83 bf       	out	0x33, r24	; 51
    10cc:	83 b7       	in	r24, 0x33	; 51
    10ce:	8d 7f       	andi	r24, 0xFD	; 253
    10d0:	83 bf       	out	0x33, r24	; 51
    10d2:	83 b7       	in	r24, 0x33	; 51
    10d4:	84 60       	ori	r24, 0x04	; 4
    10d6:	83 bf       	out	0x33, r24	; 51
    10d8:	08 95       	ret
    10da:	81 15       	cp	r24, r1
    10dc:	94 40       	sbci	r25, 0x04	; 4
    10de:	49 f4       	brne	.+18     	; 0x10f2 <adjustPrescalarT0+0x82>
    10e0:	83 b7       	in	r24, 0x33	; 51
    10e2:	81 60       	ori	r24, 0x01	; 1
    10e4:	83 bf       	out	0x33, r24	; 51
    10e6:	83 b7       	in	r24, 0x33	; 51
    10e8:	8d 7f       	andi	r24, 0xFD	; 253
    10ea:	83 bf       	out	0x33, r24	; 51
    10ec:	83 b7       	in	r24, 0x33	; 51
    10ee:	84 60       	ori	r24, 0x04	; 4
    10f0:	83 bf       	out	0x33, r24	; 51
    10f2:	08 95       	ret

000010f4 <adjustPrescalarT1>:
    10f4:	81 30       	cpi	r24, 0x01	; 1
    10f6:	91 05       	cpc	r25, r1
    10f8:	51 f4       	brne	.+20     	; 0x110e <adjustPrescalarT1+0x1a>
    10fa:	8e b5       	in	r24, 0x2e	; 46
    10fc:	81 60       	ori	r24, 0x01	; 1
    10fe:	8e bd       	out	0x2e, r24	; 46
    1100:	8e b5       	in	r24, 0x2e	; 46
    1102:	8d 7f       	andi	r24, 0xFD	; 253
    1104:	8e bd       	out	0x2e, r24	; 46
    1106:	8e b5       	in	r24, 0x2e	; 46
    1108:	8b 7f       	andi	r24, 0xFB	; 251
    110a:	8e bd       	out	0x2e, r24	; 46
    110c:	08 95       	ret
    110e:	88 30       	cpi	r24, 0x08	; 8
    1110:	91 05       	cpc	r25, r1
    1112:	51 f4       	brne	.+20     	; 0x1128 <adjustPrescalarT1+0x34>
    1114:	8e b5       	in	r24, 0x2e	; 46
    1116:	8e 7f       	andi	r24, 0xFE	; 254
    1118:	8e bd       	out	0x2e, r24	; 46
    111a:	8e b5       	in	r24, 0x2e	; 46
    111c:	82 60       	ori	r24, 0x02	; 2
    111e:	8e bd       	out	0x2e, r24	; 46
    1120:	8e b5       	in	r24, 0x2e	; 46
    1122:	8b 7f       	andi	r24, 0xFB	; 251
    1124:	8e bd       	out	0x2e, r24	; 46
    1126:	08 95       	ret
    1128:	80 34       	cpi	r24, 0x40	; 64
    112a:	91 05       	cpc	r25, r1
    112c:	51 f4       	brne	.+20     	; 0x1142 <adjustPrescalarT1+0x4e>
    112e:	8e b5       	in	r24, 0x2e	; 46
    1130:	81 60       	ori	r24, 0x01	; 1
    1132:	8e bd       	out	0x2e, r24	; 46
    1134:	8e b5       	in	r24, 0x2e	; 46
    1136:	82 60       	ori	r24, 0x02	; 2
    1138:	8e bd       	out	0x2e, r24	; 46
    113a:	8e b5       	in	r24, 0x2e	; 46
    113c:	8b 7f       	andi	r24, 0xFB	; 251
    113e:	8e bd       	out	0x2e, r24	; 46
    1140:	08 95       	ret
    1142:	81 15       	cp	r24, r1
    1144:	21 e0       	ldi	r18, 0x01	; 1
    1146:	92 07       	cpc	r25, r18
    1148:	51 f4       	brne	.+20     	; 0x115e <adjustPrescalarT1+0x6a>
    114a:	8e b5       	in	r24, 0x2e	; 46
    114c:	8e 7f       	andi	r24, 0xFE	; 254
    114e:	8e bd       	out	0x2e, r24	; 46
    1150:	8e b5       	in	r24, 0x2e	; 46
    1152:	8d 7f       	andi	r24, 0xFD	; 253
    1154:	8e bd       	out	0x2e, r24	; 46
    1156:	8e b5       	in	r24, 0x2e	; 46
    1158:	84 60       	ori	r24, 0x04	; 4
    115a:	8e bd       	out	0x2e, r24	; 46
    115c:	08 95       	ret
    115e:	81 15       	cp	r24, r1
    1160:	94 40       	sbci	r25, 0x04	; 4
    1162:	49 f4       	brne	.+18     	; 0x1176 <adjustPrescalarT1+0x82>
    1164:	8e b5       	in	r24, 0x2e	; 46
    1166:	81 60       	ori	r24, 0x01	; 1
    1168:	8e bd       	out	0x2e, r24	; 46
    116a:	8e b5       	in	r24, 0x2e	; 46
    116c:	8d 7f       	andi	r24, 0xFD	; 253
    116e:	8e bd       	out	0x2e, r24	; 46
    1170:	8e b5       	in	r24, 0x2e	; 46
    1172:	84 60       	ori	r24, 0x04	; 4
    1174:	8e bd       	out	0x2e, r24	; 46
    1176:	08 95       	ret

00001178 <adjustPrescalarT2>:
    1178:	81 30       	cpi	r24, 0x01	; 1
    117a:	91 05       	cpc	r25, r1
    117c:	51 f4       	brne	.+20     	; 0x1192 <adjustPrescalarT2+0x1a>
    117e:	85 b5       	in	r24, 0x25	; 37
    1180:	81 60       	ori	r24, 0x01	; 1
    1182:	85 bd       	out	0x25, r24	; 37
    1184:	85 b5       	in	r24, 0x25	; 37
    1186:	8d 7f       	andi	r24, 0xFD	; 253
    1188:	85 bd       	out	0x25, r24	; 37
    118a:	85 b5       	in	r24, 0x25	; 37
    118c:	8b 7f       	andi	r24, 0xFB	; 251
    118e:	85 bd       	out	0x25, r24	; 37
    1190:	08 95       	ret
    1192:	88 30       	cpi	r24, 0x08	; 8
    1194:	91 05       	cpc	r25, r1
    1196:	51 f4       	brne	.+20     	; 0x11ac <adjustPrescalarT2+0x34>
    1198:	85 b5       	in	r24, 0x25	; 37
    119a:	8e 7f       	andi	r24, 0xFE	; 254
    119c:	85 bd       	out	0x25, r24	; 37
    119e:	85 b5       	in	r24, 0x25	; 37
    11a0:	82 60       	ori	r24, 0x02	; 2
    11a2:	85 bd       	out	0x25, r24	; 37
    11a4:	85 b5       	in	r24, 0x25	; 37
    11a6:	8b 7f       	andi	r24, 0xFB	; 251
    11a8:	85 bd       	out	0x25, r24	; 37
    11aa:	08 95       	ret
    11ac:	80 32       	cpi	r24, 0x20	; 32
    11ae:	91 05       	cpc	r25, r1
    11b0:	51 f4       	brne	.+20     	; 0x11c6 <adjustPrescalarT2+0x4e>
    11b2:	85 b5       	in	r24, 0x25	; 37
    11b4:	81 60       	ori	r24, 0x01	; 1
    11b6:	85 bd       	out	0x25, r24	; 37
    11b8:	85 b5       	in	r24, 0x25	; 37
    11ba:	82 60       	ori	r24, 0x02	; 2
    11bc:	85 bd       	out	0x25, r24	; 37
    11be:	85 b5       	in	r24, 0x25	; 37
    11c0:	8b 7f       	andi	r24, 0xFB	; 251
    11c2:	85 bd       	out	0x25, r24	; 37
    11c4:	08 95       	ret
    11c6:	80 34       	cpi	r24, 0x40	; 64
    11c8:	91 05       	cpc	r25, r1
    11ca:	51 f4       	brne	.+20     	; 0x11e0 <adjustPrescalarT2+0x68>
    11cc:	85 b5       	in	r24, 0x25	; 37
    11ce:	8e 7f       	andi	r24, 0xFE	; 254
    11d0:	85 bd       	out	0x25, r24	; 37
    11d2:	85 b5       	in	r24, 0x25	; 37
    11d4:	8d 7f       	andi	r24, 0xFD	; 253
    11d6:	85 bd       	out	0x25, r24	; 37
    11d8:	85 b5       	in	r24, 0x25	; 37
    11da:	84 60       	ori	r24, 0x04	; 4
    11dc:	85 bd       	out	0x25, r24	; 37
    11de:	08 95       	ret
    11e0:	80 38       	cpi	r24, 0x80	; 128
    11e2:	91 05       	cpc	r25, r1
    11e4:	51 f4       	brne	.+20     	; 0x11fa <adjustPrescalarT2+0x82>
    11e6:	85 b5       	in	r24, 0x25	; 37
    11e8:	81 60       	ori	r24, 0x01	; 1
    11ea:	85 bd       	out	0x25, r24	; 37
    11ec:	85 b5       	in	r24, 0x25	; 37
    11ee:	8d 7f       	andi	r24, 0xFD	; 253
    11f0:	85 bd       	out	0x25, r24	; 37
    11f2:	85 b5       	in	r24, 0x25	; 37
    11f4:	84 60       	ori	r24, 0x04	; 4
    11f6:	85 bd       	out	0x25, r24	; 37
    11f8:	08 95       	ret
    11fa:	81 15       	cp	r24, r1
    11fc:	21 e0       	ldi	r18, 0x01	; 1
    11fe:	92 07       	cpc	r25, r18
    1200:	51 f4       	brne	.+20     	; 0x1216 <adjustPrescalarT2+0x9e>
    1202:	85 b5       	in	r24, 0x25	; 37
    1204:	8e 7f       	andi	r24, 0xFE	; 254
    1206:	85 bd       	out	0x25, r24	; 37
    1208:	85 b5       	in	r24, 0x25	; 37
    120a:	82 60       	ori	r24, 0x02	; 2
    120c:	85 bd       	out	0x25, r24	; 37
    120e:	85 b5       	in	r24, 0x25	; 37
    1210:	84 60       	ori	r24, 0x04	; 4
    1212:	85 bd       	out	0x25, r24	; 37
    1214:	08 95       	ret
    1216:	81 15       	cp	r24, r1
    1218:	94 40       	sbci	r25, 0x04	; 4
    121a:	49 f4       	brne	.+18     	; 0x122e <adjustPrescalarT2+0xb6>
    121c:	85 b5       	in	r24, 0x25	; 37
    121e:	81 60       	ori	r24, 0x01	; 1
    1220:	85 bd       	out	0x25, r24	; 37
    1222:	85 b5       	in	r24, 0x25	; 37
    1224:	82 60       	ori	r24, 0x02	; 2
    1226:	85 bd       	out	0x25, r24	; 37
    1228:	85 b5       	in	r24, 0x25	; 37
    122a:	84 60       	ori	r24, 0x04	; 4
    122c:	85 bd       	out	0x25, r24	; 37
    122e:	08 95       	ret

00001230 <Timer_Delay>:
    1230:	4f 92       	push	r4
    1232:	5f 92       	push	r5
    1234:	6f 92       	push	r6
    1236:	7f 92       	push	r7
    1238:	8f 92       	push	r8
    123a:	9f 92       	push	r9
    123c:	af 92       	push	r10
    123e:	bf 92       	push	r11
    1240:	cf 92       	push	r12
    1242:	df 92       	push	r13
    1244:	ef 92       	push	r14
    1246:	ff 92       	push	r15
    1248:	0f 93       	push	r16
    124a:	1f 93       	push	r17
    124c:	cf 93       	push	r28
    124e:	df 93       	push	r29
    1250:	cd b7       	in	r28, 0x3d	; 61
    1252:	de b7       	in	r29, 0x3e	; 62
    1254:	2a 97       	sbiw	r28, 0x0a	; 10
    1256:	0f b6       	in	r0, 0x3f	; 63
    1258:	f8 94       	cli
    125a:	de bf       	out	0x3e, r29	; 62
    125c:	0f be       	out	0x3f, r0	; 63
    125e:	cd bf       	out	0x3d, r28	; 61
    1260:	6b 01       	movw	r12, r22
    1262:	7c 01       	movw	r14, r24
    1264:	09 83       	std	Y+1, r16	; 0x01
    1266:	1a 83       	std	Y+2, r17	; 0x02
    1268:	2b 83       	std	Y+3, r18	; 0x03
    126a:	3c 83       	std	Y+4, r19	; 0x04
    126c:	4d 83       	std	Y+5, r20	; 0x05
    126e:	5e 83       	std	Y+6, r21	; 0x06
    1270:	03 35       	cpi	r16, 0x53	; 83
    1272:	09 f0       	breq	.+2      	; 0x1276 <Timer_Delay+0x46>
    1274:	71 c0       	rjmp	.+226    	; 0x1358 <Timer_Delay+0x128>
    1276:	37 c0       	rjmp	.+110    	; 0x12e6 <Timer_Delay+0xb6>
    1278:	6a 81       	ldd	r22, Y+2	; 0x02
    127a:	7b 81       	ldd	r23, Y+3	; 0x03
    127c:	8c 81       	ldd	r24, Y+4	; 0x04
    127e:	9d 81       	ldd	r25, Y+5	; 0x05
    1280:	e1 2f       	mov	r30, r17
    1282:	f0 e0       	ldi	r31, 0x00	; 0
    1284:	ee 0f       	add	r30, r30
    1286:	ff 1f       	adc	r31, r31
    1288:	e7 58       	subi	r30, 0x87	; 135
    128a:	ff 4f       	sbci	r31, 0xFF	; 255
    128c:	a0 80       	ld	r10, Z
    128e:	b1 80       	ldd	r11, Z+1	; 0x01
    1290:	95 01       	movw	r18, r10
    1292:	40 e0       	ldi	r20, 0x00	; 0
    1294:	50 e0       	ldi	r21, 0x00	; 0
    1296:	0e 94 9a 0d 	call	0x1b34	; 0x1b34 <__udivmodsi4>
    129a:	84 2f       	mov	r24, r20
    129c:	95 2f       	mov	r25, r21
    129e:	42 2e       	mov	r4, r18
    12a0:	53 2e       	mov	r5, r19
    12a2:	64 2e       	mov	r6, r20
    12a4:	75 2e       	mov	r7, r21
    12a6:	62 2f       	mov	r22, r18
    12a8:	73 2f       	mov	r23, r19
    12aa:	0e 94 62 0c 	call	0x18c4	; 0x18c4 <__floatunsisf>
    12ae:	6f 83       	std	Y+7, r22	; 0x07
    12b0:	78 87       	std	Y+8, r23	; 0x08
    12b2:	89 87       	std	Y+9, r24	; 0x09
    12b4:	9a 87       	std	Y+10, r25	; 0x0a
    12b6:	a7 01       	movw	r20, r14
    12b8:	96 01       	movw	r18, r12
    12ba:	60 e0       	ldi	r22, 0x00	; 0
    12bc:	70 e0       	ldi	r23, 0x00	; 0
    12be:	8f e7       	ldi	r24, 0x7F	; 127
    12c0:	93 e4       	ldi	r25, 0x43	; 67
    12c2:	0e 94 ba 0b 	call	0x1774	; 0x1774 <__divsf3>
    12c6:	9b 01       	movw	r18, r22
    12c8:	ac 01       	movw	r20, r24
    12ca:	6f 81       	ldd	r22, Y+7	; 0x07
    12cc:	78 85       	ldd	r23, Y+8	; 0x08
    12ce:	89 85       	ldd	r24, Y+9	; 0x09
    12d0:	9a 85       	ldd	r25, Y+10	; 0x0a
    12d2:	0e 94 b5 0b 	call	0x176a	; 0x176a <__cmpsf2>
    12d6:	88 23       	and	r24, r24
    12d8:	24 f4       	brge	.+8      	; 0x12e2 <Timer_Delay+0xb2>
    12da:	45 28       	or	r4, r5
    12dc:	46 28       	or	r4, r6
    12de:	47 28       	or	r4, r7
    12e0:	49 f4       	brne	.+18     	; 0x12f4 <Timer_Delay+0xc4>
    12e2:	1f 5f       	subi	r17, 0xFF	; 255
    12e4:	01 c0       	rjmp	.+2      	; 0x12e8 <Timer_Delay+0xb8>
    12e6:	10 e0       	ldi	r17, 0x00	; 0
    12e8:	15 30       	cpi	r17, 0x05	; 5
    12ea:	30 f2       	brcs	.-116    	; 0x1278 <Timer_Delay+0x48>
    12ec:	01 e0       	ldi	r16, 0x01	; 1
    12ee:	10 e0       	ldi	r17, 0x00	; 0
    12f0:	80 e0       	ldi	r24, 0x00	; 0
    12f2:	02 c0       	rjmp	.+4      	; 0x12f8 <Timer_Delay+0xc8>
    12f4:	85 01       	movw	r16, r10
    12f6:	81 e0       	ldi	r24, 0x01	; 1
    12f8:	88 23       	and	r24, r24
    12fa:	09 f4       	brne	.+2      	; 0x12fe <Timer_Delay+0xce>
    12fc:	38 c1       	rjmp	.+624    	; 0x156e <Timer_Delay+0x33e>
    12fe:	c8 01       	movw	r24, r16
    1300:	0e 94 38 08 	call	0x1070	; 0x1070 <adjustPrescalarT0>
    1304:	6a 81       	ldd	r22, Y+2	; 0x02
    1306:	7b 81       	ldd	r23, Y+3	; 0x03
    1308:	8c 81       	ldd	r24, Y+4	; 0x04
    130a:	9d 81       	ldd	r25, Y+5	; 0x05
    130c:	0e 94 62 0c 	call	0x18c4	; 0x18c4 <__floatunsisf>
    1310:	a7 01       	movw	r20, r14
    1312:	96 01       	movw	r18, r12
    1314:	0e 94 19 0d 	call	0x1a32	; 0x1a32 <__mulsf3>
    1318:	6b 01       	movw	r12, r22
    131a:	7c 01       	movw	r14, r24
    131c:	b8 01       	movw	r22, r16
    131e:	80 e0       	ldi	r24, 0x00	; 0
    1320:	90 e0       	ldi	r25, 0x00	; 0
    1322:	0e 94 62 0c 	call	0x18c4	; 0x18c4 <__floatunsisf>
    1326:	9b 01       	movw	r18, r22
    1328:	ac 01       	movw	r20, r24
    132a:	c7 01       	movw	r24, r14
    132c:	b6 01       	movw	r22, r12
    132e:	0e 94 ba 0b 	call	0x1774	; 0x1774 <__divsf3>
    1332:	9b 01       	movw	r18, r22
    1334:	ac 01       	movw	r20, r24
    1336:	60 e0       	ldi	r22, 0x00	; 0
    1338:	70 e0       	ldi	r23, 0x00	; 0
    133a:	8f e7       	ldi	r24, 0x7F	; 127
    133c:	93 e4       	ldi	r25, 0x43	; 67
    133e:	0e 94 48 0b 	call	0x1690	; 0x1690 <__subsf3>
    1342:	0e 94 2c 0c 	call	0x1858	; 0x1858 <__fixsfsi>
    1346:	62 bf       	out	0x32, r22	; 50
    1348:	08 b6       	in	r0, 0x38	; 56
    134a:	00 fe       	sbrs	r0, 0
    134c:	fd cf       	rjmp	.-6      	; 0x1348 <Timer_Delay+0x118>
    134e:	88 b7       	in	r24, 0x38	; 56
    1350:	81 60       	ori	r24, 0x01	; 1
    1352:	88 bf       	out	0x38, r24	; 56
    1354:	81 e0       	ldi	r24, 0x01	; 1
    1356:	10 c1       	rjmp	.+544    	; 0x1578 <Timer_Delay+0x348>
    1358:	05 34       	cpi	r16, 0x45	; 69
    135a:	09 f0       	breq	.+2      	; 0x135e <Timer_Delay+0x12e>
    135c:	71 c0       	rjmp	.+226    	; 0x1440 <Timer_Delay+0x210>
    135e:	37 c0       	rjmp	.+110    	; 0x13ce <Timer_Delay+0x19e>
    1360:	6a 81       	ldd	r22, Y+2	; 0x02
    1362:	7b 81       	ldd	r23, Y+3	; 0x03
    1364:	8c 81       	ldd	r24, Y+4	; 0x04
    1366:	9d 81       	ldd	r25, Y+5	; 0x05
    1368:	e1 2f       	mov	r30, r17
    136a:	f0 e0       	ldi	r31, 0x00	; 0
    136c:	ee 0f       	add	r30, r30
    136e:	ff 1f       	adc	r31, r31
    1370:	e5 59       	subi	r30, 0x95	; 149
    1372:	ff 4f       	sbci	r31, 0xFF	; 255
    1374:	a0 80       	ld	r10, Z
    1376:	b1 80       	ldd	r11, Z+1	; 0x01
    1378:	95 01       	movw	r18, r10
    137a:	40 e0       	ldi	r20, 0x00	; 0
    137c:	50 e0       	ldi	r21, 0x00	; 0
    137e:	0e 94 9a 0d 	call	0x1b34	; 0x1b34 <__udivmodsi4>
    1382:	84 2f       	mov	r24, r20
    1384:	95 2f       	mov	r25, r21
    1386:	42 2e       	mov	r4, r18
    1388:	53 2e       	mov	r5, r19
    138a:	64 2e       	mov	r6, r20
    138c:	75 2e       	mov	r7, r21
    138e:	62 2f       	mov	r22, r18
    1390:	73 2f       	mov	r23, r19
    1392:	0e 94 62 0c 	call	0x18c4	; 0x18c4 <__floatunsisf>
    1396:	6f 83       	std	Y+7, r22	; 0x07
    1398:	78 87       	std	Y+8, r23	; 0x08
    139a:	89 87       	std	Y+9, r24	; 0x09
    139c:	9a 87       	std	Y+10, r25	; 0x0a
    139e:	a7 01       	movw	r20, r14
    13a0:	96 01       	movw	r18, r12
    13a2:	60 e0       	ldi	r22, 0x00	; 0
    13a4:	70 e0       	ldi	r23, 0x00	; 0
    13a6:	8f e7       	ldi	r24, 0x7F	; 127
    13a8:	93 e4       	ldi	r25, 0x43	; 67
    13aa:	0e 94 ba 0b 	call	0x1774	; 0x1774 <__divsf3>
    13ae:	9b 01       	movw	r18, r22
    13b0:	ac 01       	movw	r20, r24
    13b2:	6f 81       	ldd	r22, Y+7	; 0x07
    13b4:	78 85       	ldd	r23, Y+8	; 0x08
    13b6:	89 85       	ldd	r24, Y+9	; 0x09
    13b8:	9a 85       	ldd	r25, Y+10	; 0x0a
    13ba:	0e 94 b5 0b 	call	0x176a	; 0x176a <__cmpsf2>
    13be:	88 23       	and	r24, r24
    13c0:	24 f4       	brge	.+8      	; 0x13ca <Timer_Delay+0x19a>
    13c2:	45 28       	or	r4, r5
    13c4:	46 28       	or	r4, r6
    13c6:	47 28       	or	r4, r7
    13c8:	49 f4       	brne	.+18     	; 0x13dc <Timer_Delay+0x1ac>
    13ca:	1f 5f       	subi	r17, 0xFF	; 255
    13cc:	01 c0       	rjmp	.+2      	; 0x13d0 <Timer_Delay+0x1a0>
    13ce:	10 e0       	ldi	r17, 0x00	; 0
    13d0:	17 30       	cpi	r17, 0x07	; 7
    13d2:	30 f2       	brcs	.-116    	; 0x1360 <Timer_Delay+0x130>
    13d4:	01 e0       	ldi	r16, 0x01	; 1
    13d6:	10 e0       	ldi	r17, 0x00	; 0
    13d8:	80 e0       	ldi	r24, 0x00	; 0
    13da:	02 c0       	rjmp	.+4      	; 0x13e0 <Timer_Delay+0x1b0>
    13dc:	85 01       	movw	r16, r10
    13de:	81 e0       	ldi	r24, 0x01	; 1
    13e0:	88 23       	and	r24, r24
    13e2:	09 f4       	brne	.+2      	; 0x13e6 <Timer_Delay+0x1b6>
    13e4:	c6 c0       	rjmp	.+396    	; 0x1572 <Timer_Delay+0x342>
    13e6:	c8 01       	movw	r24, r16
    13e8:	0e 94 bc 08 	call	0x1178	; 0x1178 <adjustPrescalarT2>
    13ec:	6a 81       	ldd	r22, Y+2	; 0x02
    13ee:	7b 81       	ldd	r23, Y+3	; 0x03
    13f0:	8c 81       	ldd	r24, Y+4	; 0x04
    13f2:	9d 81       	ldd	r25, Y+5	; 0x05
    13f4:	0e 94 62 0c 	call	0x18c4	; 0x18c4 <__floatunsisf>
    13f8:	a7 01       	movw	r20, r14
    13fa:	96 01       	movw	r18, r12
    13fc:	0e 94 19 0d 	call	0x1a32	; 0x1a32 <__mulsf3>
    1400:	6b 01       	movw	r12, r22
    1402:	7c 01       	movw	r14, r24
    1404:	b8 01       	movw	r22, r16
    1406:	80 e0       	ldi	r24, 0x00	; 0
    1408:	90 e0       	ldi	r25, 0x00	; 0
    140a:	0e 94 62 0c 	call	0x18c4	; 0x18c4 <__floatunsisf>
    140e:	9b 01       	movw	r18, r22
    1410:	ac 01       	movw	r20, r24
    1412:	c7 01       	movw	r24, r14
    1414:	b6 01       	movw	r22, r12
    1416:	0e 94 ba 0b 	call	0x1774	; 0x1774 <__divsf3>
    141a:	9b 01       	movw	r18, r22
    141c:	ac 01       	movw	r20, r24
    141e:	60 e0       	ldi	r22, 0x00	; 0
    1420:	70 e0       	ldi	r23, 0x00	; 0
    1422:	8f e7       	ldi	r24, 0x7F	; 127
    1424:	93 e4       	ldi	r25, 0x43	; 67
    1426:	0e 94 48 0b 	call	0x1690	; 0x1690 <__subsf3>
    142a:	0e 94 2c 0c 	call	0x1858	; 0x1858 <__fixsfsi>
    142e:	64 bd       	out	0x24, r22	; 36
    1430:	08 b6       	in	r0, 0x38	; 56
    1432:	06 fe       	sbrs	r0, 6
    1434:	fd cf       	rjmp	.-6      	; 0x1430 <Timer_Delay+0x200>
    1436:	88 b7       	in	r24, 0x38	; 56
    1438:	80 64       	ori	r24, 0x40	; 64
    143a:	88 bf       	out	0x38, r24	; 56
    143c:	81 e0       	ldi	r24, 0x01	; 1
    143e:	9c c0       	rjmp	.+312    	; 0x1578 <Timer_Delay+0x348>
    1440:	0f 34       	cpi	r16, 0x4F	; 79
    1442:	e9 f1       	breq	.+122    	; 0x14be <Timer_Delay+0x28e>
    1444:	80 e0       	ldi	r24, 0x00	; 0
    1446:	98 c0       	rjmp	.+304    	; 0x1578 <Timer_Delay+0x348>
    1448:	6a 81       	ldd	r22, Y+2	; 0x02
    144a:	7b 81       	ldd	r23, Y+3	; 0x03
    144c:	8c 81       	ldd	r24, Y+4	; 0x04
    144e:	9d 81       	ldd	r25, Y+5	; 0x05
    1450:	e1 2f       	mov	r30, r17
    1452:	f0 e0       	ldi	r31, 0x00	; 0
    1454:	ee 0f       	add	r30, r30
    1456:	ff 1f       	adc	r31, r31
    1458:	e7 58       	subi	r30, 0x87	; 135
    145a:	ff 4f       	sbci	r31, 0xFF	; 255
    145c:	a0 80       	ld	r10, Z
    145e:	b1 80       	ldd	r11, Z+1	; 0x01
    1460:	95 01       	movw	r18, r10
    1462:	40 e0       	ldi	r20, 0x00	; 0
    1464:	50 e0       	ldi	r21, 0x00	; 0
    1466:	0e 94 9a 0d 	call	0x1b34	; 0x1b34 <__udivmodsi4>
    146a:	29 01       	movw	r4, r18
    146c:	3a 01       	movw	r6, r20
    146e:	b9 01       	movw	r22, r18
    1470:	80 e0       	ldi	r24, 0x00	; 0
    1472:	90 e0       	ldi	r25, 0x00	; 0
    1474:	0e 94 62 0c 	call	0x18c4	; 0x18c4 <__floatunsisf>
    1478:	6f 83       	std	Y+7, r22	; 0x07
    147a:	78 87       	std	Y+8, r23	; 0x08
    147c:	89 87       	std	Y+9, r24	; 0x09
    147e:	9a 87       	std	Y+10, r25	; 0x0a
    1480:	a7 01       	movw	r20, r14
    1482:	96 01       	movw	r18, r12
    1484:	60 e0       	ldi	r22, 0x00	; 0
    1486:	70 e0       	ldi	r23, 0x00	; 0
    1488:	80 e8       	ldi	r24, 0x80	; 128
    148a:	97 e4       	ldi	r25, 0x47	; 71
    148c:	0e 94 ba 0b 	call	0x1774	; 0x1774 <__divsf3>
    1490:	9b 01       	movw	r18, r22
    1492:	ac 01       	movw	r20, r24
    1494:	6f 81       	ldd	r22, Y+7	; 0x07
    1496:	78 85       	ldd	r23, Y+8	; 0x08
    1498:	89 85       	ldd	r24, Y+9	; 0x09
    149a:	9a 85       	ldd	r25, Y+10	; 0x0a
    149c:	0e 94 b5 0b 	call	0x176a	; 0x176a <__cmpsf2>
    14a0:	88 23       	and	r24, r24
    14a2:	5c f4       	brge	.+22     	; 0x14ba <Timer_Delay+0x28a>
    14a4:	c3 01       	movw	r24, r6
    14a6:	b2 01       	movw	r22, r4
    14a8:	0e 94 62 0c 	call	0x18c4	; 0x18c4 <__floatunsisf>
    14ac:	20 e0       	ldi	r18, 0x00	; 0
    14ae:	30 e0       	ldi	r19, 0x00	; 0
    14b0:	a9 01       	movw	r20, r18
    14b2:	0e 94 14 0d 	call	0x1a28	; 0x1a28 <__gesf2>
    14b6:	18 16       	cp	r1, r24
    14b8:	4c f0       	brlt	.+18     	; 0x14cc <Timer_Delay+0x29c>
    14ba:	1f 5f       	subi	r17, 0xFF	; 255
    14bc:	01 c0       	rjmp	.+2      	; 0x14c0 <Timer_Delay+0x290>
    14be:	10 e0       	ldi	r17, 0x00	; 0
    14c0:	15 30       	cpi	r17, 0x05	; 5
    14c2:	10 f2       	brcs	.-124    	; 0x1448 <Timer_Delay+0x218>
    14c4:	01 e0       	ldi	r16, 0x01	; 1
    14c6:	10 e0       	ldi	r17, 0x00	; 0
    14c8:	80 e0       	ldi	r24, 0x00	; 0
    14ca:	02 c0       	rjmp	.+4      	; 0x14d0 <Timer_Delay+0x2a0>
    14cc:	85 01       	movw	r16, r10
    14ce:	81 e0       	ldi	r24, 0x01	; 1
    14d0:	88 23       	and	r24, r24
    14d2:	09 f4       	brne	.+2      	; 0x14d6 <Timer_Delay+0x2a6>
    14d4:	50 c0       	rjmp	.+160    	; 0x1576 <Timer_Delay+0x346>
    14d6:	c8 01       	movw	r24, r16
    14d8:	0e 94 7a 08 	call	0x10f4	; 0x10f4 <adjustPrescalarT1>
    14dc:	6a 81       	ldd	r22, Y+2	; 0x02
    14de:	7b 81       	ldd	r23, Y+3	; 0x03
    14e0:	8c 81       	ldd	r24, Y+4	; 0x04
    14e2:	9d 81       	ldd	r25, Y+5	; 0x05
    14e4:	0e 94 62 0c 	call	0x18c4	; 0x18c4 <__floatunsisf>
    14e8:	a7 01       	movw	r20, r14
    14ea:	96 01       	movw	r18, r12
    14ec:	0e 94 19 0d 	call	0x1a32	; 0x1a32 <__mulsf3>
    14f0:	2b 01       	movw	r4, r22
    14f2:	3c 01       	movw	r6, r24
    14f4:	b8 01       	movw	r22, r16
    14f6:	80 e0       	ldi	r24, 0x00	; 0
    14f8:	90 e0       	ldi	r25, 0x00	; 0
    14fa:	0e 94 62 0c 	call	0x18c4	; 0x18c4 <__floatunsisf>
    14fe:	4b 01       	movw	r8, r22
    1500:	5c 01       	movw	r10, r24
    1502:	9b 01       	movw	r18, r22
    1504:	ac 01       	movw	r20, r24
    1506:	c3 01       	movw	r24, r6
    1508:	b2 01       	movw	r22, r4
    150a:	0e 94 ba 0b 	call	0x1774	; 0x1774 <__divsf3>
    150e:	9b 01       	movw	r18, r22
    1510:	ac 01       	movw	r20, r24
    1512:	60 e0       	ldi	r22, 0x00	; 0
    1514:	70 e0       	ldi	r23, 0x00	; 0
    1516:	80 e8       	ldi	r24, 0x80	; 128
    1518:	97 e4       	ldi	r25, 0x47	; 71
    151a:	0e 94 48 0b 	call	0x1690	; 0x1690 <__subsf3>
    151e:	0e 94 33 0c 	call	0x1866	; 0x1866 <__fixunssfsi>
    1522:	7d bd       	out	0x2d, r23	; 45
    1524:	6a 81       	ldd	r22, Y+2	; 0x02
    1526:	7b 81       	ldd	r23, Y+3	; 0x03
    1528:	8c 81       	ldd	r24, Y+4	; 0x04
    152a:	9d 81       	ldd	r25, Y+5	; 0x05
    152c:	0e 94 62 0c 	call	0x18c4	; 0x18c4 <__floatunsisf>
    1530:	a7 01       	movw	r20, r14
    1532:	96 01       	movw	r18, r12
    1534:	0e 94 19 0d 	call	0x1a32	; 0x1a32 <__mulsf3>
    1538:	a5 01       	movw	r20, r10
    153a:	94 01       	movw	r18, r8
    153c:	0e 94 ba 0b 	call	0x1774	; 0x1774 <__divsf3>
    1540:	9b 01       	movw	r18, r22
    1542:	ac 01       	movw	r20, r24
    1544:	60 e0       	ldi	r22, 0x00	; 0
    1546:	70 e0       	ldi	r23, 0x00	; 0
    1548:	80 e8       	ldi	r24, 0x80	; 128
    154a:	97 e4       	ldi	r25, 0x47	; 71
    154c:	0e 94 48 0b 	call	0x1690	; 0x1690 <__subsf3>
    1550:	0e 94 33 0c 	call	0x1866	; 0x1866 <__fixunssfsi>
    1554:	21 e0       	ldi	r18, 0x01	; 1
    1556:	67 2b       	or	r22, r23
    1558:	09 f4       	brne	.+2      	; 0x155c <Timer_Delay+0x32c>
    155a:	20 e0       	ldi	r18, 0x00	; 0
    155c:	2c bd       	out	0x2c, r18	; 44
    155e:	08 b6       	in	r0, 0x38	; 56
    1560:	02 fe       	sbrs	r0, 2
    1562:	fd cf       	rjmp	.-6      	; 0x155e <Timer_Delay+0x32e>
    1564:	88 b7       	in	r24, 0x38	; 56
    1566:	84 60       	ori	r24, 0x04	; 4
    1568:	88 bf       	out	0x38, r24	; 56
    156a:	81 e0       	ldi	r24, 0x01	; 1
    156c:	05 c0       	rjmp	.+10     	; 0x1578 <Timer_Delay+0x348>
    156e:	80 e0       	ldi	r24, 0x00	; 0
    1570:	03 c0       	rjmp	.+6      	; 0x1578 <Timer_Delay+0x348>
    1572:	80 e0       	ldi	r24, 0x00	; 0
    1574:	01 c0       	rjmp	.+2      	; 0x1578 <Timer_Delay+0x348>
    1576:	80 e0       	ldi	r24, 0x00	; 0
    1578:	2a 96       	adiw	r28, 0x0a	; 10
    157a:	0f b6       	in	r0, 0x3f	; 63
    157c:	f8 94       	cli
    157e:	de bf       	out	0x3e, r29	; 62
    1580:	0f be       	out	0x3f, r0	; 63
    1582:	cd bf       	out	0x3d, r28	; 61
    1584:	df 91       	pop	r29
    1586:	cf 91       	pop	r28
    1588:	1f 91       	pop	r17
    158a:	0f 91       	pop	r16
    158c:	ff 90       	pop	r15
    158e:	ef 90       	pop	r14
    1590:	df 90       	pop	r13
    1592:	cf 90       	pop	r12
    1594:	bf 90       	pop	r11
    1596:	af 90       	pop	r10
    1598:	9f 90       	pop	r9
    159a:	8f 90       	pop	r8
    159c:	7f 90       	pop	r7
    159e:	6f 90       	pop	r6
    15a0:	5f 90       	pop	r5
    15a2:	4f 90       	pop	r4
    15a4:	08 95       	ret

000015a6 <__vector_10>:
    15a6:	1f 92       	push	r1
    15a8:	0f 92       	push	r0
    15aa:	0f b6       	in	r0, 0x3f	; 63
    15ac:	0f 92       	push	r0
    15ae:	11 24       	eor	r1, r1
    15b0:	2f 93       	push	r18
    15b2:	3f 93       	push	r19
    15b4:	4f 93       	push	r20
    15b6:	5f 93       	push	r21
    15b8:	6f 93       	push	r22
    15ba:	7f 93       	push	r23
    15bc:	8f 93       	push	r24
    15be:	9f 93       	push	r25
    15c0:	af 93       	push	r26
    15c2:	bf 93       	push	r27
    15c4:	ef 93       	push	r30
    15c6:	ff 93       	push	r31
    15c8:	e0 91 c1 00 	lds	r30, 0x00C1	; 0x8000c1 <TIMER0_CM_ISR>
    15cc:	f0 91 c2 00 	lds	r31, 0x00C2	; 0x8000c2 <TIMER0_CM_ISR+0x1>
    15d0:	09 95       	icall
    15d2:	ff 91       	pop	r31
    15d4:	ef 91       	pop	r30
    15d6:	bf 91       	pop	r27
    15d8:	af 91       	pop	r26
    15da:	9f 91       	pop	r25
    15dc:	8f 91       	pop	r24
    15de:	7f 91       	pop	r23
    15e0:	6f 91       	pop	r22
    15e2:	5f 91       	pop	r21
    15e4:	4f 91       	pop	r20
    15e6:	3f 91       	pop	r19
    15e8:	2f 91       	pop	r18
    15ea:	0f 90       	pop	r0
    15ec:	0f be       	out	0x3f, r0	; 63
    15ee:	0f 90       	pop	r0
    15f0:	1f 90       	pop	r1
    15f2:	18 95       	reti

000015f4 <__vector_7>:
    15f4:	1f 92       	push	r1
    15f6:	0f 92       	push	r0
    15f8:	0f b6       	in	r0, 0x3f	; 63
    15fa:	0f 92       	push	r0
    15fc:	11 24       	eor	r1, r1
    15fe:	2f 93       	push	r18
    1600:	3f 93       	push	r19
    1602:	4f 93       	push	r20
    1604:	5f 93       	push	r21
    1606:	6f 93       	push	r22
    1608:	7f 93       	push	r23
    160a:	8f 93       	push	r24
    160c:	9f 93       	push	r25
    160e:	af 93       	push	r26
    1610:	bf 93       	push	r27
    1612:	ef 93       	push	r30
    1614:	ff 93       	push	r31
    1616:	e0 91 c5 00 	lds	r30, 0x00C5	; 0x8000c5 <TIMER1_CMA_ISR>
    161a:	f0 91 c6 00 	lds	r31, 0x00C6	; 0x8000c6 <TIMER1_CMA_ISR+0x1>
    161e:	09 95       	icall
    1620:	ff 91       	pop	r31
    1622:	ef 91       	pop	r30
    1624:	bf 91       	pop	r27
    1626:	af 91       	pop	r26
    1628:	9f 91       	pop	r25
    162a:	8f 91       	pop	r24
    162c:	7f 91       	pop	r23
    162e:	6f 91       	pop	r22
    1630:	5f 91       	pop	r21
    1632:	4f 91       	pop	r20
    1634:	3f 91       	pop	r19
    1636:	2f 91       	pop	r18
    1638:	0f 90       	pop	r0
    163a:	0f be       	out	0x3f, r0	; 63
    163c:	0f 90       	pop	r0
    163e:	1f 90       	pop	r1
    1640:	18 95       	reti

00001642 <__vector_4>:
    1642:	1f 92       	push	r1
    1644:	0f 92       	push	r0
    1646:	0f b6       	in	r0, 0x3f	; 63
    1648:	0f 92       	push	r0
    164a:	11 24       	eor	r1, r1
    164c:	2f 93       	push	r18
    164e:	3f 93       	push	r19
    1650:	4f 93       	push	r20
    1652:	5f 93       	push	r21
    1654:	6f 93       	push	r22
    1656:	7f 93       	push	r23
    1658:	8f 93       	push	r24
    165a:	9f 93       	push	r25
    165c:	af 93       	push	r26
    165e:	bf 93       	push	r27
    1660:	ef 93       	push	r30
    1662:	ff 93       	push	r31
    1664:	e0 91 c3 00 	lds	r30, 0x00C3	; 0x8000c3 <TIMER2_CM_ISR>
    1668:	f0 91 c4 00 	lds	r31, 0x00C4	; 0x8000c4 <TIMER2_CM_ISR+0x1>
    166c:	09 95       	icall
    166e:	ff 91       	pop	r31
    1670:	ef 91       	pop	r30
    1672:	bf 91       	pop	r27
    1674:	af 91       	pop	r26
    1676:	9f 91       	pop	r25
    1678:	8f 91       	pop	r24
    167a:	7f 91       	pop	r23
    167c:	6f 91       	pop	r22
    167e:	5f 91       	pop	r21
    1680:	4f 91       	pop	r20
    1682:	3f 91       	pop	r19
    1684:	2f 91       	pop	r18
    1686:	0f 90       	pop	r0
    1688:	0f be       	out	0x3f, r0	; 63
    168a:	0f 90       	pop	r0
    168c:	1f 90       	pop	r1
    168e:	18 95       	reti

00001690 <__subsf3>:
    1690:	50 58       	subi	r21, 0x80	; 128

00001692 <__addsf3>:
    1692:	bb 27       	eor	r27, r27
    1694:	aa 27       	eor	r26, r26
    1696:	0e 94 60 0b 	call	0x16c0	; 0x16c0 <__addsf3x>
    169a:	0c 94 da 0c 	jmp	0x19b4	; 0x19b4 <__fp_round>
    169e:	0e 94 cc 0c 	call	0x1998	; 0x1998 <__fp_pscA>
    16a2:	38 f0       	brcs	.+14     	; 0x16b2 <__addsf3+0x20>
    16a4:	0e 94 d3 0c 	call	0x19a6	; 0x19a6 <__fp_pscB>
    16a8:	20 f0       	brcs	.+8      	; 0x16b2 <__addsf3+0x20>
    16aa:	39 f4       	brne	.+14     	; 0x16ba <__addsf3+0x28>
    16ac:	9f 3f       	cpi	r25, 0xFF	; 255
    16ae:	19 f4       	brne	.+6      	; 0x16b6 <__addsf3+0x24>
    16b0:	26 f4       	brtc	.+8      	; 0x16ba <__addsf3+0x28>
    16b2:	0c 94 c9 0c 	jmp	0x1992	; 0x1992 <__fp_nan>
    16b6:	0e f4       	brtc	.+2      	; 0x16ba <__addsf3+0x28>
    16b8:	e0 95       	com	r30
    16ba:	e7 fb       	bst	r30, 7
    16bc:	0c 94 c3 0c 	jmp	0x1986	; 0x1986 <__fp_inf>

000016c0 <__addsf3x>:
    16c0:	e9 2f       	mov	r30, r25
    16c2:	0e 94 eb 0c 	call	0x19d6	; 0x19d6 <__fp_split3>
    16c6:	58 f3       	brcs	.-42     	; 0x169e <__addsf3+0xc>
    16c8:	ba 17       	cp	r27, r26
    16ca:	62 07       	cpc	r22, r18
    16cc:	73 07       	cpc	r23, r19
    16ce:	84 07       	cpc	r24, r20
    16d0:	95 07       	cpc	r25, r21
    16d2:	20 f0       	brcs	.+8      	; 0x16dc <__addsf3x+0x1c>
    16d4:	79 f4       	brne	.+30     	; 0x16f4 <__addsf3x+0x34>
    16d6:	a6 f5       	brtc	.+104    	; 0x1740 <__addsf3x+0x80>
    16d8:	0c 94 0d 0d 	jmp	0x1a1a	; 0x1a1a <__fp_zero>
    16dc:	0e f4       	brtc	.+2      	; 0x16e0 <__addsf3x+0x20>
    16de:	e0 95       	com	r30
    16e0:	0b 2e       	mov	r0, r27
    16e2:	ba 2f       	mov	r27, r26
    16e4:	a0 2d       	mov	r26, r0
    16e6:	0b 01       	movw	r0, r22
    16e8:	b9 01       	movw	r22, r18
    16ea:	90 01       	movw	r18, r0
    16ec:	0c 01       	movw	r0, r24
    16ee:	ca 01       	movw	r24, r20
    16f0:	a0 01       	movw	r20, r0
    16f2:	11 24       	eor	r1, r1
    16f4:	ff 27       	eor	r31, r31
    16f6:	59 1b       	sub	r21, r25
    16f8:	99 f0       	breq	.+38     	; 0x1720 <__addsf3x+0x60>
    16fa:	59 3f       	cpi	r21, 0xF9	; 249
    16fc:	50 f4       	brcc	.+20     	; 0x1712 <__addsf3x+0x52>
    16fe:	50 3e       	cpi	r21, 0xE0	; 224
    1700:	68 f1       	brcs	.+90     	; 0x175c <__addsf3x+0x9c>
    1702:	1a 16       	cp	r1, r26
    1704:	f0 40       	sbci	r31, 0x00	; 0
    1706:	a2 2f       	mov	r26, r18
    1708:	23 2f       	mov	r18, r19
    170a:	34 2f       	mov	r19, r20
    170c:	44 27       	eor	r20, r20
    170e:	58 5f       	subi	r21, 0xF8	; 248
    1710:	f3 cf       	rjmp	.-26     	; 0x16f8 <__addsf3x+0x38>
    1712:	46 95       	lsr	r20
    1714:	37 95       	ror	r19
    1716:	27 95       	ror	r18
    1718:	a7 95       	ror	r26
    171a:	f0 40       	sbci	r31, 0x00	; 0
    171c:	53 95       	inc	r21
    171e:	c9 f7       	brne	.-14     	; 0x1712 <__addsf3x+0x52>
    1720:	7e f4       	brtc	.+30     	; 0x1740 <__addsf3x+0x80>
    1722:	1f 16       	cp	r1, r31
    1724:	ba 0b       	sbc	r27, r26
    1726:	62 0b       	sbc	r22, r18
    1728:	73 0b       	sbc	r23, r19
    172a:	84 0b       	sbc	r24, r20
    172c:	ba f0       	brmi	.+46     	; 0x175c <__addsf3x+0x9c>
    172e:	91 50       	subi	r25, 0x01	; 1
    1730:	a1 f0       	breq	.+40     	; 0x175a <__addsf3x+0x9a>
    1732:	ff 0f       	add	r31, r31
    1734:	bb 1f       	adc	r27, r27
    1736:	66 1f       	adc	r22, r22
    1738:	77 1f       	adc	r23, r23
    173a:	88 1f       	adc	r24, r24
    173c:	c2 f7       	brpl	.-16     	; 0x172e <__addsf3x+0x6e>
    173e:	0e c0       	rjmp	.+28     	; 0x175c <__addsf3x+0x9c>
    1740:	ba 0f       	add	r27, r26
    1742:	62 1f       	adc	r22, r18
    1744:	73 1f       	adc	r23, r19
    1746:	84 1f       	adc	r24, r20
    1748:	48 f4       	brcc	.+18     	; 0x175c <__addsf3x+0x9c>
    174a:	87 95       	ror	r24
    174c:	77 95       	ror	r23
    174e:	67 95       	ror	r22
    1750:	b7 95       	ror	r27
    1752:	f7 95       	ror	r31
    1754:	9e 3f       	cpi	r25, 0xFE	; 254
    1756:	08 f0       	brcs	.+2      	; 0x175a <__addsf3x+0x9a>
    1758:	b0 cf       	rjmp	.-160    	; 0x16ba <__addsf3+0x28>
    175a:	93 95       	inc	r25
    175c:	88 0f       	add	r24, r24
    175e:	08 f0       	brcs	.+2      	; 0x1762 <__addsf3x+0xa2>
    1760:	99 27       	eor	r25, r25
    1762:	ee 0f       	add	r30, r30
    1764:	97 95       	ror	r25
    1766:	87 95       	ror	r24
    1768:	08 95       	ret

0000176a <__cmpsf2>:
    176a:	0e 94 9f 0c 	call	0x193e	; 0x193e <__fp_cmp>
    176e:	08 f4       	brcc	.+2      	; 0x1772 <__cmpsf2+0x8>
    1770:	81 e0       	ldi	r24, 0x01	; 1
    1772:	08 95       	ret

00001774 <__divsf3>:
    1774:	0e 94 ce 0b 	call	0x179c	; 0x179c <__divsf3x>
    1778:	0c 94 da 0c 	jmp	0x19b4	; 0x19b4 <__fp_round>
    177c:	0e 94 d3 0c 	call	0x19a6	; 0x19a6 <__fp_pscB>
    1780:	58 f0       	brcs	.+22     	; 0x1798 <__divsf3+0x24>
    1782:	0e 94 cc 0c 	call	0x1998	; 0x1998 <__fp_pscA>
    1786:	40 f0       	brcs	.+16     	; 0x1798 <__divsf3+0x24>
    1788:	29 f4       	brne	.+10     	; 0x1794 <__divsf3+0x20>
    178a:	5f 3f       	cpi	r21, 0xFF	; 255
    178c:	29 f0       	breq	.+10     	; 0x1798 <__divsf3+0x24>
    178e:	0c 94 c3 0c 	jmp	0x1986	; 0x1986 <__fp_inf>
    1792:	51 11       	cpse	r21, r1
    1794:	0c 94 0e 0d 	jmp	0x1a1c	; 0x1a1c <__fp_szero>
    1798:	0c 94 c9 0c 	jmp	0x1992	; 0x1992 <__fp_nan>

0000179c <__divsf3x>:
    179c:	0e 94 eb 0c 	call	0x19d6	; 0x19d6 <__fp_split3>
    17a0:	68 f3       	brcs	.-38     	; 0x177c <__divsf3+0x8>

000017a2 <__divsf3_pse>:
    17a2:	99 23       	and	r25, r25
    17a4:	b1 f3       	breq	.-20     	; 0x1792 <__divsf3+0x1e>
    17a6:	55 23       	and	r21, r21
    17a8:	91 f3       	breq	.-28     	; 0x178e <__divsf3+0x1a>
    17aa:	95 1b       	sub	r25, r21
    17ac:	55 0b       	sbc	r21, r21
    17ae:	bb 27       	eor	r27, r27
    17b0:	aa 27       	eor	r26, r26
    17b2:	62 17       	cp	r22, r18
    17b4:	73 07       	cpc	r23, r19
    17b6:	84 07       	cpc	r24, r20
    17b8:	38 f0       	brcs	.+14     	; 0x17c8 <__divsf3_pse+0x26>
    17ba:	9f 5f       	subi	r25, 0xFF	; 255
    17bc:	5f 4f       	sbci	r21, 0xFF	; 255
    17be:	22 0f       	add	r18, r18
    17c0:	33 1f       	adc	r19, r19
    17c2:	44 1f       	adc	r20, r20
    17c4:	aa 1f       	adc	r26, r26
    17c6:	a9 f3       	breq	.-22     	; 0x17b2 <__divsf3_pse+0x10>
    17c8:	35 d0       	rcall	.+106    	; 0x1834 <__divsf3_pse+0x92>
    17ca:	0e 2e       	mov	r0, r30
    17cc:	3a f0       	brmi	.+14     	; 0x17dc <__divsf3_pse+0x3a>
    17ce:	e0 e8       	ldi	r30, 0x80	; 128
    17d0:	32 d0       	rcall	.+100    	; 0x1836 <__divsf3_pse+0x94>
    17d2:	91 50       	subi	r25, 0x01	; 1
    17d4:	50 40       	sbci	r21, 0x00	; 0
    17d6:	e6 95       	lsr	r30
    17d8:	00 1c       	adc	r0, r0
    17da:	ca f7       	brpl	.-14     	; 0x17ce <__divsf3_pse+0x2c>
    17dc:	2b d0       	rcall	.+86     	; 0x1834 <__divsf3_pse+0x92>
    17de:	fe 2f       	mov	r31, r30
    17e0:	29 d0       	rcall	.+82     	; 0x1834 <__divsf3_pse+0x92>
    17e2:	66 0f       	add	r22, r22
    17e4:	77 1f       	adc	r23, r23
    17e6:	88 1f       	adc	r24, r24
    17e8:	bb 1f       	adc	r27, r27
    17ea:	26 17       	cp	r18, r22
    17ec:	37 07       	cpc	r19, r23
    17ee:	48 07       	cpc	r20, r24
    17f0:	ab 07       	cpc	r26, r27
    17f2:	b0 e8       	ldi	r27, 0x80	; 128
    17f4:	09 f0       	breq	.+2      	; 0x17f8 <__divsf3_pse+0x56>
    17f6:	bb 0b       	sbc	r27, r27
    17f8:	80 2d       	mov	r24, r0
    17fa:	bf 01       	movw	r22, r30
    17fc:	ff 27       	eor	r31, r31
    17fe:	93 58       	subi	r25, 0x83	; 131
    1800:	5f 4f       	sbci	r21, 0xFF	; 255
    1802:	3a f0       	brmi	.+14     	; 0x1812 <__divsf3_pse+0x70>
    1804:	9e 3f       	cpi	r25, 0xFE	; 254
    1806:	51 05       	cpc	r21, r1
    1808:	78 f0       	brcs	.+30     	; 0x1828 <__divsf3_pse+0x86>
    180a:	0c 94 c3 0c 	jmp	0x1986	; 0x1986 <__fp_inf>
    180e:	0c 94 0e 0d 	jmp	0x1a1c	; 0x1a1c <__fp_szero>
    1812:	5f 3f       	cpi	r21, 0xFF	; 255
    1814:	e4 f3       	brlt	.-8      	; 0x180e <__divsf3_pse+0x6c>
    1816:	98 3e       	cpi	r25, 0xE8	; 232
    1818:	d4 f3       	brlt	.-12     	; 0x180e <__divsf3_pse+0x6c>
    181a:	86 95       	lsr	r24
    181c:	77 95       	ror	r23
    181e:	67 95       	ror	r22
    1820:	b7 95       	ror	r27
    1822:	f7 95       	ror	r31
    1824:	9f 5f       	subi	r25, 0xFF	; 255
    1826:	c9 f7       	brne	.-14     	; 0x181a <__divsf3_pse+0x78>
    1828:	88 0f       	add	r24, r24
    182a:	91 1d       	adc	r25, r1
    182c:	96 95       	lsr	r25
    182e:	87 95       	ror	r24
    1830:	97 f9       	bld	r25, 7
    1832:	08 95       	ret
    1834:	e1 e0       	ldi	r30, 0x01	; 1
    1836:	66 0f       	add	r22, r22
    1838:	77 1f       	adc	r23, r23
    183a:	88 1f       	adc	r24, r24
    183c:	bb 1f       	adc	r27, r27
    183e:	62 17       	cp	r22, r18
    1840:	73 07       	cpc	r23, r19
    1842:	84 07       	cpc	r24, r20
    1844:	ba 07       	cpc	r27, r26
    1846:	20 f0       	brcs	.+8      	; 0x1850 <__divsf3_pse+0xae>
    1848:	62 1b       	sub	r22, r18
    184a:	73 0b       	sbc	r23, r19
    184c:	84 0b       	sbc	r24, r20
    184e:	ba 0b       	sbc	r27, r26
    1850:	ee 1f       	adc	r30, r30
    1852:	88 f7       	brcc	.-30     	; 0x1836 <__divsf3_pse+0x94>
    1854:	e0 95       	com	r30
    1856:	08 95       	ret

00001858 <__fixsfsi>:
    1858:	0e 94 33 0c 	call	0x1866	; 0x1866 <__fixunssfsi>
    185c:	68 94       	set
    185e:	b1 11       	cpse	r27, r1
    1860:	0c 94 0e 0d 	jmp	0x1a1c	; 0x1a1c <__fp_szero>
    1864:	08 95       	ret

00001866 <__fixunssfsi>:
    1866:	0e 94 f3 0c 	call	0x19e6	; 0x19e6 <__fp_splitA>
    186a:	88 f0       	brcs	.+34     	; 0x188e <__fixunssfsi+0x28>
    186c:	9f 57       	subi	r25, 0x7F	; 127
    186e:	98 f0       	brcs	.+38     	; 0x1896 <__fixunssfsi+0x30>
    1870:	b9 2f       	mov	r27, r25
    1872:	99 27       	eor	r25, r25
    1874:	b7 51       	subi	r27, 0x17	; 23
    1876:	b0 f0       	brcs	.+44     	; 0x18a4 <__fixunssfsi+0x3e>
    1878:	e1 f0       	breq	.+56     	; 0x18b2 <__fixunssfsi+0x4c>
    187a:	66 0f       	add	r22, r22
    187c:	77 1f       	adc	r23, r23
    187e:	88 1f       	adc	r24, r24
    1880:	99 1f       	adc	r25, r25
    1882:	1a f0       	brmi	.+6      	; 0x188a <__fixunssfsi+0x24>
    1884:	ba 95       	dec	r27
    1886:	c9 f7       	brne	.-14     	; 0x187a <__fixunssfsi+0x14>
    1888:	14 c0       	rjmp	.+40     	; 0x18b2 <__fixunssfsi+0x4c>
    188a:	b1 30       	cpi	r27, 0x01	; 1
    188c:	91 f0       	breq	.+36     	; 0x18b2 <__fixunssfsi+0x4c>
    188e:	0e 94 0d 0d 	call	0x1a1a	; 0x1a1a <__fp_zero>
    1892:	b1 e0       	ldi	r27, 0x01	; 1
    1894:	08 95       	ret
    1896:	0c 94 0d 0d 	jmp	0x1a1a	; 0x1a1a <__fp_zero>
    189a:	67 2f       	mov	r22, r23
    189c:	78 2f       	mov	r23, r24
    189e:	88 27       	eor	r24, r24
    18a0:	b8 5f       	subi	r27, 0xF8	; 248
    18a2:	39 f0       	breq	.+14     	; 0x18b2 <__fixunssfsi+0x4c>
    18a4:	b9 3f       	cpi	r27, 0xF9	; 249
    18a6:	cc f3       	brlt	.-14     	; 0x189a <__fixunssfsi+0x34>
    18a8:	86 95       	lsr	r24
    18aa:	77 95       	ror	r23
    18ac:	67 95       	ror	r22
    18ae:	b3 95       	inc	r27
    18b0:	d9 f7       	brne	.-10     	; 0x18a8 <__fixunssfsi+0x42>
    18b2:	3e f4       	brtc	.+14     	; 0x18c2 <__fixunssfsi+0x5c>
    18b4:	90 95       	com	r25
    18b6:	80 95       	com	r24
    18b8:	70 95       	com	r23
    18ba:	61 95       	neg	r22
    18bc:	7f 4f       	sbci	r23, 0xFF	; 255
    18be:	8f 4f       	sbci	r24, 0xFF	; 255
    18c0:	9f 4f       	sbci	r25, 0xFF	; 255
    18c2:	08 95       	ret

000018c4 <__floatunsisf>:
    18c4:	e8 94       	clt
    18c6:	09 c0       	rjmp	.+18     	; 0x18da <__floatsisf+0x12>

000018c8 <__floatsisf>:
    18c8:	97 fb       	bst	r25, 7
    18ca:	3e f4       	brtc	.+14     	; 0x18da <__floatsisf+0x12>
    18cc:	90 95       	com	r25
    18ce:	80 95       	com	r24
    18d0:	70 95       	com	r23
    18d2:	61 95       	neg	r22
    18d4:	7f 4f       	sbci	r23, 0xFF	; 255
    18d6:	8f 4f       	sbci	r24, 0xFF	; 255
    18d8:	9f 4f       	sbci	r25, 0xFF	; 255
    18da:	99 23       	and	r25, r25
    18dc:	a9 f0       	breq	.+42     	; 0x1908 <__floatsisf+0x40>
    18de:	f9 2f       	mov	r31, r25
    18e0:	96 e9       	ldi	r25, 0x96	; 150
    18e2:	bb 27       	eor	r27, r27
    18e4:	93 95       	inc	r25
    18e6:	f6 95       	lsr	r31
    18e8:	87 95       	ror	r24
    18ea:	77 95       	ror	r23
    18ec:	67 95       	ror	r22
    18ee:	b7 95       	ror	r27
    18f0:	f1 11       	cpse	r31, r1
    18f2:	f8 cf       	rjmp	.-16     	; 0x18e4 <__floatsisf+0x1c>
    18f4:	fa f4       	brpl	.+62     	; 0x1934 <__floatsisf+0x6c>
    18f6:	bb 0f       	add	r27, r27
    18f8:	11 f4       	brne	.+4      	; 0x18fe <__floatsisf+0x36>
    18fa:	60 ff       	sbrs	r22, 0
    18fc:	1b c0       	rjmp	.+54     	; 0x1934 <__floatsisf+0x6c>
    18fe:	6f 5f       	subi	r22, 0xFF	; 255
    1900:	7f 4f       	sbci	r23, 0xFF	; 255
    1902:	8f 4f       	sbci	r24, 0xFF	; 255
    1904:	9f 4f       	sbci	r25, 0xFF	; 255
    1906:	16 c0       	rjmp	.+44     	; 0x1934 <__floatsisf+0x6c>
    1908:	88 23       	and	r24, r24
    190a:	11 f0       	breq	.+4      	; 0x1910 <__floatsisf+0x48>
    190c:	96 e9       	ldi	r25, 0x96	; 150
    190e:	11 c0       	rjmp	.+34     	; 0x1932 <__floatsisf+0x6a>
    1910:	77 23       	and	r23, r23
    1912:	21 f0       	breq	.+8      	; 0x191c <__floatsisf+0x54>
    1914:	9e e8       	ldi	r25, 0x8E	; 142
    1916:	87 2f       	mov	r24, r23
    1918:	76 2f       	mov	r23, r22
    191a:	05 c0       	rjmp	.+10     	; 0x1926 <__floatsisf+0x5e>
    191c:	66 23       	and	r22, r22
    191e:	71 f0       	breq	.+28     	; 0x193c <__floatsisf+0x74>
    1920:	96 e8       	ldi	r25, 0x86	; 134
    1922:	86 2f       	mov	r24, r22
    1924:	70 e0       	ldi	r23, 0x00	; 0
    1926:	60 e0       	ldi	r22, 0x00	; 0
    1928:	2a f0       	brmi	.+10     	; 0x1934 <__floatsisf+0x6c>
    192a:	9a 95       	dec	r25
    192c:	66 0f       	add	r22, r22
    192e:	77 1f       	adc	r23, r23
    1930:	88 1f       	adc	r24, r24
    1932:	da f7       	brpl	.-10     	; 0x192a <__floatsisf+0x62>
    1934:	88 0f       	add	r24, r24
    1936:	96 95       	lsr	r25
    1938:	87 95       	ror	r24
    193a:	97 f9       	bld	r25, 7
    193c:	08 95       	ret

0000193e <__fp_cmp>:
    193e:	99 0f       	add	r25, r25
    1940:	00 08       	sbc	r0, r0
    1942:	55 0f       	add	r21, r21
    1944:	aa 0b       	sbc	r26, r26
    1946:	e0 e8       	ldi	r30, 0x80	; 128
    1948:	fe ef       	ldi	r31, 0xFE	; 254
    194a:	16 16       	cp	r1, r22
    194c:	17 06       	cpc	r1, r23
    194e:	e8 07       	cpc	r30, r24
    1950:	f9 07       	cpc	r31, r25
    1952:	c0 f0       	brcs	.+48     	; 0x1984 <__fp_cmp+0x46>
    1954:	12 16       	cp	r1, r18
    1956:	13 06       	cpc	r1, r19
    1958:	e4 07       	cpc	r30, r20
    195a:	f5 07       	cpc	r31, r21
    195c:	98 f0       	brcs	.+38     	; 0x1984 <__fp_cmp+0x46>
    195e:	62 1b       	sub	r22, r18
    1960:	73 0b       	sbc	r23, r19
    1962:	84 0b       	sbc	r24, r20
    1964:	95 0b       	sbc	r25, r21
    1966:	39 f4       	brne	.+14     	; 0x1976 <__fp_cmp+0x38>
    1968:	0a 26       	eor	r0, r26
    196a:	61 f0       	breq	.+24     	; 0x1984 <__fp_cmp+0x46>
    196c:	23 2b       	or	r18, r19
    196e:	24 2b       	or	r18, r20
    1970:	25 2b       	or	r18, r21
    1972:	21 f4       	brne	.+8      	; 0x197c <__fp_cmp+0x3e>
    1974:	08 95       	ret
    1976:	0a 26       	eor	r0, r26
    1978:	09 f4       	brne	.+2      	; 0x197c <__fp_cmp+0x3e>
    197a:	a1 40       	sbci	r26, 0x01	; 1
    197c:	a6 95       	lsr	r26
    197e:	8f ef       	ldi	r24, 0xFF	; 255
    1980:	81 1d       	adc	r24, r1
    1982:	81 1d       	adc	r24, r1
    1984:	08 95       	ret

00001986 <__fp_inf>:
    1986:	97 f9       	bld	r25, 7
    1988:	9f 67       	ori	r25, 0x7F	; 127
    198a:	80 e8       	ldi	r24, 0x80	; 128
    198c:	70 e0       	ldi	r23, 0x00	; 0
    198e:	60 e0       	ldi	r22, 0x00	; 0
    1990:	08 95       	ret

00001992 <__fp_nan>:
    1992:	9f ef       	ldi	r25, 0xFF	; 255
    1994:	80 ec       	ldi	r24, 0xC0	; 192
    1996:	08 95       	ret

00001998 <__fp_pscA>:
    1998:	00 24       	eor	r0, r0
    199a:	0a 94       	dec	r0
    199c:	16 16       	cp	r1, r22
    199e:	17 06       	cpc	r1, r23
    19a0:	18 06       	cpc	r1, r24
    19a2:	09 06       	cpc	r0, r25
    19a4:	08 95       	ret

000019a6 <__fp_pscB>:
    19a6:	00 24       	eor	r0, r0
    19a8:	0a 94       	dec	r0
    19aa:	12 16       	cp	r1, r18
    19ac:	13 06       	cpc	r1, r19
    19ae:	14 06       	cpc	r1, r20
    19b0:	05 06       	cpc	r0, r21
    19b2:	08 95       	ret

000019b4 <__fp_round>:
    19b4:	09 2e       	mov	r0, r25
    19b6:	03 94       	inc	r0
    19b8:	00 0c       	add	r0, r0
    19ba:	11 f4       	brne	.+4      	; 0x19c0 <__fp_round+0xc>
    19bc:	88 23       	and	r24, r24
    19be:	52 f0       	brmi	.+20     	; 0x19d4 <__fp_round+0x20>
    19c0:	bb 0f       	add	r27, r27
    19c2:	40 f4       	brcc	.+16     	; 0x19d4 <__fp_round+0x20>
    19c4:	bf 2b       	or	r27, r31
    19c6:	11 f4       	brne	.+4      	; 0x19cc <__fp_round+0x18>
    19c8:	60 ff       	sbrs	r22, 0
    19ca:	04 c0       	rjmp	.+8      	; 0x19d4 <__fp_round+0x20>
    19cc:	6f 5f       	subi	r22, 0xFF	; 255
    19ce:	7f 4f       	sbci	r23, 0xFF	; 255
    19d0:	8f 4f       	sbci	r24, 0xFF	; 255
    19d2:	9f 4f       	sbci	r25, 0xFF	; 255
    19d4:	08 95       	ret

000019d6 <__fp_split3>:
    19d6:	57 fd       	sbrc	r21, 7
    19d8:	90 58       	subi	r25, 0x80	; 128
    19da:	44 0f       	add	r20, r20
    19dc:	55 1f       	adc	r21, r21
    19de:	59 f0       	breq	.+22     	; 0x19f6 <__fp_splitA+0x10>
    19e0:	5f 3f       	cpi	r21, 0xFF	; 255
    19e2:	71 f0       	breq	.+28     	; 0x1a00 <__fp_splitA+0x1a>
    19e4:	47 95       	ror	r20

000019e6 <__fp_splitA>:
    19e6:	88 0f       	add	r24, r24
    19e8:	97 fb       	bst	r25, 7
    19ea:	99 1f       	adc	r25, r25
    19ec:	61 f0       	breq	.+24     	; 0x1a06 <__fp_splitA+0x20>
    19ee:	9f 3f       	cpi	r25, 0xFF	; 255
    19f0:	79 f0       	breq	.+30     	; 0x1a10 <__fp_splitA+0x2a>
    19f2:	87 95       	ror	r24
    19f4:	08 95       	ret
    19f6:	12 16       	cp	r1, r18
    19f8:	13 06       	cpc	r1, r19
    19fa:	14 06       	cpc	r1, r20
    19fc:	55 1f       	adc	r21, r21
    19fe:	f2 cf       	rjmp	.-28     	; 0x19e4 <__fp_split3+0xe>
    1a00:	46 95       	lsr	r20
    1a02:	f1 df       	rcall	.-30     	; 0x19e6 <__fp_splitA>
    1a04:	08 c0       	rjmp	.+16     	; 0x1a16 <__fp_splitA+0x30>
    1a06:	16 16       	cp	r1, r22
    1a08:	17 06       	cpc	r1, r23
    1a0a:	18 06       	cpc	r1, r24
    1a0c:	99 1f       	adc	r25, r25
    1a0e:	f1 cf       	rjmp	.-30     	; 0x19f2 <__fp_splitA+0xc>
    1a10:	86 95       	lsr	r24
    1a12:	71 05       	cpc	r23, r1
    1a14:	61 05       	cpc	r22, r1
    1a16:	08 94       	sec
    1a18:	08 95       	ret

00001a1a <__fp_zero>:
    1a1a:	e8 94       	clt

00001a1c <__fp_szero>:
    1a1c:	bb 27       	eor	r27, r27
    1a1e:	66 27       	eor	r22, r22
    1a20:	77 27       	eor	r23, r23
    1a22:	cb 01       	movw	r24, r22
    1a24:	97 f9       	bld	r25, 7
    1a26:	08 95       	ret

00001a28 <__gesf2>:
    1a28:	0e 94 9f 0c 	call	0x193e	; 0x193e <__fp_cmp>
    1a2c:	08 f4       	brcc	.+2      	; 0x1a30 <__gesf2+0x8>
    1a2e:	8f ef       	ldi	r24, 0xFF	; 255
    1a30:	08 95       	ret

00001a32 <__mulsf3>:
    1a32:	0e 94 2c 0d 	call	0x1a58	; 0x1a58 <__mulsf3x>
    1a36:	0c 94 da 0c 	jmp	0x19b4	; 0x19b4 <__fp_round>
    1a3a:	0e 94 cc 0c 	call	0x1998	; 0x1998 <__fp_pscA>
    1a3e:	38 f0       	brcs	.+14     	; 0x1a4e <__mulsf3+0x1c>
    1a40:	0e 94 d3 0c 	call	0x19a6	; 0x19a6 <__fp_pscB>
    1a44:	20 f0       	brcs	.+8      	; 0x1a4e <__mulsf3+0x1c>
    1a46:	95 23       	and	r25, r21
    1a48:	11 f0       	breq	.+4      	; 0x1a4e <__mulsf3+0x1c>
    1a4a:	0c 94 c3 0c 	jmp	0x1986	; 0x1986 <__fp_inf>
    1a4e:	0c 94 c9 0c 	jmp	0x1992	; 0x1992 <__fp_nan>
    1a52:	11 24       	eor	r1, r1
    1a54:	0c 94 0e 0d 	jmp	0x1a1c	; 0x1a1c <__fp_szero>

00001a58 <__mulsf3x>:
    1a58:	0e 94 eb 0c 	call	0x19d6	; 0x19d6 <__fp_split3>
    1a5c:	70 f3       	brcs	.-36     	; 0x1a3a <__mulsf3+0x8>

00001a5e <__mulsf3_pse>:
    1a5e:	95 9f       	mul	r25, r21
    1a60:	c1 f3       	breq	.-16     	; 0x1a52 <__mulsf3+0x20>
    1a62:	95 0f       	add	r25, r21
    1a64:	50 e0       	ldi	r21, 0x00	; 0
    1a66:	55 1f       	adc	r21, r21
    1a68:	62 9f       	mul	r22, r18
    1a6a:	f0 01       	movw	r30, r0
    1a6c:	72 9f       	mul	r23, r18
    1a6e:	bb 27       	eor	r27, r27
    1a70:	f0 0d       	add	r31, r0
    1a72:	b1 1d       	adc	r27, r1
    1a74:	63 9f       	mul	r22, r19
    1a76:	aa 27       	eor	r26, r26
    1a78:	f0 0d       	add	r31, r0
    1a7a:	b1 1d       	adc	r27, r1
    1a7c:	aa 1f       	adc	r26, r26
    1a7e:	64 9f       	mul	r22, r20
    1a80:	66 27       	eor	r22, r22
    1a82:	b0 0d       	add	r27, r0
    1a84:	a1 1d       	adc	r26, r1
    1a86:	66 1f       	adc	r22, r22
    1a88:	82 9f       	mul	r24, r18
    1a8a:	22 27       	eor	r18, r18
    1a8c:	b0 0d       	add	r27, r0
    1a8e:	a1 1d       	adc	r26, r1
    1a90:	62 1f       	adc	r22, r18
    1a92:	73 9f       	mul	r23, r19
    1a94:	b0 0d       	add	r27, r0
    1a96:	a1 1d       	adc	r26, r1
    1a98:	62 1f       	adc	r22, r18
    1a9a:	83 9f       	mul	r24, r19
    1a9c:	a0 0d       	add	r26, r0
    1a9e:	61 1d       	adc	r22, r1
    1aa0:	22 1f       	adc	r18, r18
    1aa2:	74 9f       	mul	r23, r20
    1aa4:	33 27       	eor	r19, r19
    1aa6:	a0 0d       	add	r26, r0
    1aa8:	61 1d       	adc	r22, r1
    1aaa:	23 1f       	adc	r18, r19
    1aac:	84 9f       	mul	r24, r20
    1aae:	60 0d       	add	r22, r0
    1ab0:	21 1d       	adc	r18, r1
    1ab2:	82 2f       	mov	r24, r18
    1ab4:	76 2f       	mov	r23, r22
    1ab6:	6a 2f       	mov	r22, r26
    1ab8:	11 24       	eor	r1, r1
    1aba:	9f 57       	subi	r25, 0x7F	; 127
    1abc:	50 40       	sbci	r21, 0x00	; 0
    1abe:	9a f0       	brmi	.+38     	; 0x1ae6 <__mulsf3_pse+0x88>
    1ac0:	f1 f0       	breq	.+60     	; 0x1afe <__mulsf3_pse+0xa0>
    1ac2:	88 23       	and	r24, r24
    1ac4:	4a f0       	brmi	.+18     	; 0x1ad8 <__mulsf3_pse+0x7a>
    1ac6:	ee 0f       	add	r30, r30
    1ac8:	ff 1f       	adc	r31, r31
    1aca:	bb 1f       	adc	r27, r27
    1acc:	66 1f       	adc	r22, r22
    1ace:	77 1f       	adc	r23, r23
    1ad0:	88 1f       	adc	r24, r24
    1ad2:	91 50       	subi	r25, 0x01	; 1
    1ad4:	50 40       	sbci	r21, 0x00	; 0
    1ad6:	a9 f7       	brne	.-22     	; 0x1ac2 <__mulsf3_pse+0x64>
    1ad8:	9e 3f       	cpi	r25, 0xFE	; 254
    1ada:	51 05       	cpc	r21, r1
    1adc:	80 f0       	brcs	.+32     	; 0x1afe <__mulsf3_pse+0xa0>
    1ade:	0c 94 c3 0c 	jmp	0x1986	; 0x1986 <__fp_inf>
    1ae2:	0c 94 0e 0d 	jmp	0x1a1c	; 0x1a1c <__fp_szero>
    1ae6:	5f 3f       	cpi	r21, 0xFF	; 255
    1ae8:	e4 f3       	brlt	.-8      	; 0x1ae2 <__mulsf3_pse+0x84>
    1aea:	98 3e       	cpi	r25, 0xE8	; 232
    1aec:	d4 f3       	brlt	.-12     	; 0x1ae2 <__mulsf3_pse+0x84>
    1aee:	86 95       	lsr	r24
    1af0:	77 95       	ror	r23
    1af2:	67 95       	ror	r22
    1af4:	b7 95       	ror	r27
    1af6:	f7 95       	ror	r31
    1af8:	e7 95       	ror	r30
    1afa:	9f 5f       	subi	r25, 0xFF	; 255
    1afc:	c1 f7       	brne	.-16     	; 0x1aee <__mulsf3_pse+0x90>
    1afe:	fe 2b       	or	r31, r30
    1b00:	88 0f       	add	r24, r24
    1b02:	91 1d       	adc	r25, r1
    1b04:	96 95       	lsr	r25
    1b06:	87 95       	ror	r24
    1b08:	97 f9       	bld	r25, 7
    1b0a:	08 95       	ret

00001b0c <__divmodhi4>:
    1b0c:	97 fb       	bst	r25, 7
    1b0e:	07 2e       	mov	r0, r23
    1b10:	16 f4       	brtc	.+4      	; 0x1b16 <__divmodhi4+0xa>
    1b12:	00 94       	com	r0
    1b14:	07 d0       	rcall	.+14     	; 0x1b24 <__divmodhi4_neg1>
    1b16:	77 fd       	sbrc	r23, 7
    1b18:	09 d0       	rcall	.+18     	; 0x1b2c <__divmodhi4_neg2>
    1b1a:	0e 94 bc 0d 	call	0x1b78	; 0x1b78 <__udivmodhi4>
    1b1e:	07 fc       	sbrc	r0, 7
    1b20:	05 d0       	rcall	.+10     	; 0x1b2c <__divmodhi4_neg2>
    1b22:	3e f4       	brtc	.+14     	; 0x1b32 <__divmodhi4_exit>

00001b24 <__divmodhi4_neg1>:
    1b24:	90 95       	com	r25
    1b26:	81 95       	neg	r24
    1b28:	9f 4f       	sbci	r25, 0xFF	; 255
    1b2a:	08 95       	ret

00001b2c <__divmodhi4_neg2>:
    1b2c:	70 95       	com	r23
    1b2e:	61 95       	neg	r22
    1b30:	7f 4f       	sbci	r23, 0xFF	; 255

00001b32 <__divmodhi4_exit>:
    1b32:	08 95       	ret

00001b34 <__udivmodsi4>:
    1b34:	a1 e2       	ldi	r26, 0x21	; 33
    1b36:	1a 2e       	mov	r1, r26
    1b38:	aa 1b       	sub	r26, r26
    1b3a:	bb 1b       	sub	r27, r27
    1b3c:	fd 01       	movw	r30, r26
    1b3e:	0d c0       	rjmp	.+26     	; 0x1b5a <__udivmodsi4_ep>

00001b40 <__udivmodsi4_loop>:
    1b40:	aa 1f       	adc	r26, r26
    1b42:	bb 1f       	adc	r27, r27
    1b44:	ee 1f       	adc	r30, r30
    1b46:	ff 1f       	adc	r31, r31
    1b48:	a2 17       	cp	r26, r18
    1b4a:	b3 07       	cpc	r27, r19
    1b4c:	e4 07       	cpc	r30, r20
    1b4e:	f5 07       	cpc	r31, r21
    1b50:	20 f0       	brcs	.+8      	; 0x1b5a <__udivmodsi4_ep>
    1b52:	a2 1b       	sub	r26, r18
    1b54:	b3 0b       	sbc	r27, r19
    1b56:	e4 0b       	sbc	r30, r20
    1b58:	f5 0b       	sbc	r31, r21

00001b5a <__udivmodsi4_ep>:
    1b5a:	66 1f       	adc	r22, r22
    1b5c:	77 1f       	adc	r23, r23
    1b5e:	88 1f       	adc	r24, r24
    1b60:	99 1f       	adc	r25, r25
    1b62:	1a 94       	dec	r1
    1b64:	69 f7       	brne	.-38     	; 0x1b40 <__udivmodsi4_loop>
    1b66:	60 95       	com	r22
    1b68:	70 95       	com	r23
    1b6a:	80 95       	com	r24
    1b6c:	90 95       	com	r25
    1b6e:	9b 01       	movw	r18, r22
    1b70:	ac 01       	movw	r20, r24
    1b72:	bd 01       	movw	r22, r26
    1b74:	cf 01       	movw	r24, r30
    1b76:	08 95       	ret

00001b78 <__udivmodhi4>:
    1b78:	aa 1b       	sub	r26, r26
    1b7a:	bb 1b       	sub	r27, r27
    1b7c:	51 e1       	ldi	r21, 0x11	; 17
    1b7e:	07 c0       	rjmp	.+14     	; 0x1b8e <__udivmodhi4_ep>

00001b80 <__udivmodhi4_loop>:
    1b80:	aa 1f       	adc	r26, r26
    1b82:	bb 1f       	adc	r27, r27
    1b84:	a6 17       	cp	r26, r22
    1b86:	b7 07       	cpc	r27, r23
    1b88:	10 f0       	brcs	.+4      	; 0x1b8e <__udivmodhi4_ep>
    1b8a:	a6 1b       	sub	r26, r22
    1b8c:	b7 0b       	sbc	r27, r23

00001b8e <__udivmodhi4_ep>:
    1b8e:	88 1f       	adc	r24, r24
    1b90:	99 1f       	adc	r25, r25
    1b92:	5a 95       	dec	r21
    1b94:	a9 f7       	brne	.-22     	; 0x1b80 <__udivmodhi4_loop>
    1b96:	80 95       	com	r24
    1b98:	90 95       	com	r25
    1b9a:	bc 01       	movw	r22, r24
    1b9c:	cd 01       	movw	r24, r26
    1b9e:	08 95       	ret

00001ba0 <_exit>:
    1ba0:	f8 94       	cli

00001ba2 <__stop_program>:
    1ba2:	ff cf       	rjmp	.-2      	; 0x1ba2 <__stop_program>
